******************************************************************************
                  MSP430 Linker PC v15.12.3                    
******************************************************************************
>> Linked Mon Feb 20 11:20:35 2017

OUTPUT FILE NAME:   <emeter-ng.out>
ENTRY POINT SYMBOL: "_c_int00_noargs_noexit"  address: 00004ce8


MEMORY CONFIGURATION

         name            origin    length      used     unused   attr    fill
----------------------  --------  ---------  --------  --------  ----  --------
  SFR                   00000000   00000010  00000000  00000010  RWIX
  PERIPHERALS_8BIT      00000010   000000f0  00000000  000000f0  RWIX
  PERIPHERALS_16BIT     00000100   00000100  00000000  00000100  RWIX
  INFOD                 00001800   00000080  00000080  00000000  RWIX
  INFOC                 00001880   00000080  00000000  00000080  RWIX
  INFOB                 00001900   00000080  00000080  00000000  RWIX
  INFOA                 00001980   00000080  00000000  00000080  RWIX
  RAM                   00001c00   00002000  00001c9b  00000365  RWIX
  FLASH                 00004000   0000bf80  0000690c  00005674  RWIX
  INT00                 0000ff80   00000002  00000000  00000002  RWIX
  INT01                 0000ff82   00000002  00000000  00000002  RWIX
  INT02                 0000ff84   00000002  00000000  00000002  RWIX
  INT03                 0000ff86   00000002  00000000  00000002  RWIX
  INT04                 0000ff88   00000002  00000000  00000002  RWIX
  INT05                 0000ff8a   00000002  00000000  00000002  RWIX
  INT06                 0000ff8c   00000002  00000000  00000002  RWIX
  INT07                 0000ff8e   00000002  00000000  00000002  RWIX
  INT08                 0000ff90   00000002  00000000  00000002  RWIX
  INT09                 0000ff92   00000002  00000000  00000002  RWIX
  INT10                 0000ff94   00000002  00000000  00000002  RWIX
  INT11                 0000ff96   00000002  00000000  00000002  RWIX
  INT12                 0000ff98   00000002  00000000  00000002  RWIX
  INT13                 0000ff9a   00000002  00000000  00000002  RWIX
  INT14                 0000ff9c   00000002  00000000  00000002  RWIX
  INT15                 0000ff9e   00000002  00000000  00000002  RWIX
  INT16                 0000ffa0   00000002  00000000  00000002  RWIX
  INT17                 0000ffa2   00000002  00000000  00000002  RWIX
  INT18                 0000ffa4   00000002  00000000  00000002  RWIX
  INT19                 0000ffa6   00000002  00000000  00000002  RWIX
  INT20                 0000ffa8   00000002  00000000  00000002  RWIX
  INT21                 0000ffaa   00000002  00000000  00000002  RWIX
  INT22                 0000ffac   00000002  00000000  00000002  RWIX
  INT23                 0000ffae   00000002  00000000  00000002  RWIX
  INT24                 0000ffb0   00000002  00000000  00000002  RWIX
  INT25                 0000ffb2   00000002  00000000  00000002  RWIX
  INT26                 0000ffb4   00000002  00000000  00000002  RWIX
  INT27                 0000ffb6   00000002  00000000  00000002  RWIX
  INT28                 0000ffb8   00000002  00000000  00000002  RWIX
  INT29                 0000ffba   00000002  00000000  00000002  RWIX
  INT30                 0000ffbc   00000002  00000000  00000002  RWIX
  INT31                 0000ffbe   00000002  00000000  00000002  RWIX
  INT32                 0000ffc0   00000002  00000000  00000002  RWIX
  INT33                 0000ffc2   00000002  00000000  00000002  RWIX
  INT34                 0000ffc4   00000002  00000000  00000002  RWIX
  INT35                 0000ffc6   00000002  00000000  00000002  RWIX
  INT36                 0000ffc8   00000002  00000000  00000002  RWIX
  INT37                 0000ffca   00000002  00000000  00000002  RWIX
  INT38                 0000ffcc   00000002  00000000  00000002  RWIX
  INT39                 0000ffce   00000002  00000000  00000002  RWIX
  INT40                 0000ffd0   00000002  00000002  00000000  RWIX
  INT41                 0000ffd2   00000002  00000002  00000000  RWIX
  INT42                 0000ffd4   00000002  00000002  00000000  RWIX
  INT43                 0000ffd6   00000002  00000002  00000000  RWIX
  INT44                 0000ffd8   00000002  00000002  00000000  RWIX
  INT45                 0000ffda   00000002  00000002  00000000  RWIX
  INT46                 0000ffdc   00000002  00000002  00000000  RWIX
  INT47                 0000ffde   00000002  00000002  00000000  RWIX
  INT48                 0000ffe0   00000002  00000002  00000000  RWIX
  INT49                 0000ffe2   00000002  00000002  00000000  RWIX
  INT50                 0000ffe4   00000002  00000002  00000000  RWIX
  INT51                 0000ffe6   00000002  00000002  00000000  RWIX
  INT52                 0000ffe8   00000002  00000002  00000000  RWIX
  INT53                 0000ffea   00000002  00000002  00000000  RWIX
  INT54                 0000ffec   00000002  00000002  00000000  RWIX
  INT55                 0000ffee   00000002  00000002  00000000  RWIX
  INT56                 0000fff0   00000002  00000002  00000000  RWIX
  INT57                 0000fff2   00000002  00000002  00000000  RWIX
  INT58                 0000fff4   00000002  00000002  00000000  RWIX
  INT59                 0000fff6   00000002  00000002  00000000  RWIX
  INT60                 0000fff8   00000002  00000002  00000000  RWIX
  INT61                 0000fffa   00000002  00000002  00000000  RWIX
  INT62                 0000fffc   00000002  00000002  00000000  RWIX
  RESET                 0000fffe   00000002  00000002  00000000  RWIX
  FLASH2                00010000   00014000  00014000  00000000  RWIX


SECTION ALLOCATION MAP

 output                                  attributes/
section   page    origin      length       input sections
--------  ----  ----------  ----------   ----------------
.bss       0    00001c00    000014dd     UNINITIALIZED
                  00001c00    000007d0     (.common:RX_BUF)
                  000023d0    000001ca     (.common:chan1)
                  0000259a    00000170     (.common:rx)
                  0000270a    00000132     (.common:neutral_c)
                  0000283c    00000114     (.common:tx)
                  00002950    000000ca     (.common:IEC_Tx_Queue)
                  00002a1a    000000ca     (.common:plc_tx_buff)
                  00002ae4    000000c0     (.common:seggy)
                  00002ba4    00000090     (.common:holidays)
                  00002c34    00000080     (.common:tasks)
                  00002cb4    00000078     (.common:DataPayload)
                  00002d2c    00000042     (.common:system_info)
                  00002d6e    00000040     (.common:block_data)
                  00002dae    00000038     (.common:link)
                  00002de6    00000022     (.common:row_data)
                  00002e08    00000022     (.common:todaysRates)
                  00002e2a    0000001c     (.common:search_item)
                  00002e46    00000018     (.common:LastTxEnergyCopy)
                  00002e5e    00000014     (.common:ConnectRequestAlarm)
                  00002e72    00000014     (.common:DisconnectRequestAlarm)
                  00002e86    00000010     (.common:SA_Range)
                  00002e96    00000010     (.common:challenge_c2s)
                  00002ea6    00000010     (.common:executable_Task_Index)
                  00002eb6    00000010     (.common:image_ident)
                  00002ec6    00000010     (.common:machine_byte)
                  00002ed6    00000010     (.common:msg_info)
                  00002ee6    00000010     (.common:reply_c2s)
                  00002ef6    0000000e     (.common:status)
                  00002f04    0000000c     (.common:RecivedMessage)
                  00002f10    0000000c     (.common:confirm)
                  00002f1c    0000000c     (.common:currentEnergyLogEntryData)
                  00002f28    0000000c     (.common:currentEventLogEntryData)
                  00002f34    0000000c     (.common:disconnect_script)
                  00002f40    0000000c     (.common:ind)
                  00002f4c    0000000a     (.common:Current_billing_Period_start)
                  00002f56    0000000a     (.common:ErrorList)
                  00002f60    0000000a     (.common:Estimated_billing_period_end)
                  00002f6a    0000000a     (.common:MAC_PIB_replay)
                  00002f74    0000000a     (.common:PHY_PIB_replay)
                  00002f7e    0000000a     (.common:activePassiveCalenderTime)
                  00002f88    0000000a     (.common:conf)
                  00002f92    0000000a     (.common:required_last_entry_time)
                  00002f9c    0000000a     (.common:rtc_backup)
                  00002fa6    0000000a     (.common:rtc_global_temp)
                  00002fb0    0000000a     (.common:rtc_temp)
                  00002fba    0000000a     (.common:rtc_temp_var)
                  00002fc4    0000000a     (.common:rtcc)
                  00002fce    0000000a     (.common:temp_rtc0)
                  00002fd8    0000000a     (.common:temp_rtc1)
                  00002fe2    00000008     emeter-background.obj (.bss:adc_i_buffer$2)
                  00002fea    00000008     (.common:AlarmIndiation)
                  00002ff2    00000008     (.common:readBlobMessage)
                  00002ffa    00000008     (.common:txptr)
                  00003002    00000008     (.common:writeBlobMessage)
                  0000300a    00000006     (.common:Balance_PostPaid)
                  00003010    00000006     (.common:Current_balance)
                  00003016    00000006     (.common:TamperCount)
                  0000301c    00000006     (.common:currentHoliday_date)
                  00003022    00000006     (.common:hardware_status)
                  00003028    00000006     (.common:req)
                  0000302e    00000004     emeter-main.obj (.bss)
                  00003032    00000004     server_msgs.obj (.bss:negotiated_conformance)
                  00003036    00000004     server_msgs.obj (.bss)
                  0000303a    00000004     (.common:CurrentPage)
                  0000303e    00000004     (.common:CurrentReadAddress)
                  00003042    00000004     (.common:CurrentReadPage)
                  00003046    00000004     (.common:CurrentWriteAddress)
                  0000304a    00000004     (.common:P_Active_Negative)
                  0000304e    00000004     (.common:P_Active_Plus)
                  00003052    00000004     (.common:P_Reactive_negative)
                  00003056    00000004     (.common:P_Reactive_positive)
                  0000305a    00000004     (.common:TempLastEnergyValue)
                  0000305e    00000004     (.common:dayProfileTime1)
                  00003062    00000004     (.common:dayProfileTime2)
                  00003066    00000004     (.common:dayProfileTime3)
                  0000306a    00000004     (.common:dayProfileTime4)
                  0000306e    00000004     (.common:de_confirm)
                  00003072    00000004     (.common:desconnect_val)
                  00003076    00000004     (.common:header_array)
                  0000307a    00000004     (.common:iec_tx_buff)
                  0000307e    00000004     (.common:previous_block_number)
                  00003082    00000004     (.common:program_start_address)
                  00003086    00000004     (.common:template_pointer)
                  0000308a    00000004     (.common:total_active_power)
                  0000308e    00000004     (.common:total_active_power_counter)
                  00003092    00000004     (.common:total_consumed_active_energy)
                  00003096    00000004     (.common:total_consumed_reactive_energy)
                  0000309a    00000004     (.common:total_reactive_power)
                  0000309e    00000004     (.common:total_reactive_power_counter)
                  000030a2    00000004     (.common:v)
                  000030a6    00000002     emeter-background.obj (.bss:adc_v_buffer$1)
                  000030a8    00000002     (.common:CalcHeaderCRC)
                  000030aa    00000002     (.common:CurrentSlaveAddress)
                  000030ac    00000002     (.common:Frame_Received)
                  000030ae    00000002     (.common:HeaderCRC)
                  000030b0    00000002     (.common:MessageStatus)
                  000030b2    00000002     (.common:PayloadCRC)
                  000030b4    00000002     (.common:adc_interrupts)
                  000030b6    00000002     (.common:btemp)
                  000030b8    00000002     (.common:challenge_c2s_len)
                  000030ba    00000002     (.common:current_get_block_chunk_len_temp)
                  000030bc    00000002     (.common:download_finished)
                  000030be    00000002     (.common:meter_status)
                  000030c0    00000002     (.common:neutral_tamper_trip_counter)
                  000030c2    00000002     (.common:samples_per_second)
                  000030c4    00000002     (.common:security_level)
                  000030c6    00000002     (.common:vrms)
                  000030c8    00000001     (.common:ActivePowerTimer)
                  000030c9    00000001     (.common:LastDisconnectReason)
                  000030ca    00000001     (.common:LongPowerFailTimer)
                  000030cb    00000001     (.common:OverCurrentTimer)
                  000030cc    00000001     (.common:OverFrequencyTimer)
                  000030cd    00000001     (.common:OverVoltageTimer)
                  000030ce    00000001     (.common:UnderFrequencyTimer)
                  000030cf    00000001     (.common:UnderVoltageTimer)
                  000030d0    00000001     (.common:access_selector)
                  000030d1    00000001     (.common:ch)
                  000030d2    00000001     (.common:current_reversed)
                  000030d3    00000001     (.common:image_transfer_status)
                  000030d4    00000001     (.common:image_transferred_blocks_status)
                  000030d5    00000001     (.common:operating_mode)
                  000030d6    00000001     (.common:sdTemp)
                  000030d7    00000001     (.common:sdTempData)
                  000030d8    00000001     (.common:tamperLoggedStatus)
                  000030d9    00000001     (.common:temp)
                  000030da    00000001     (.common:temp_disp)
                  000030db    00000001     (.common:total_active_energy_pulse_remaining_time)
                  000030dc    00000001     (.common:total_reactive_energy_pulse_remaining_time)

.data      0    000030de    000006ca     UNINITIALIZED
                  000030de    000000a0     Tariff.obj (.data:rates)
                  0000317e    0000009a     config.obj (.data)
                  00003218    0000008a     server_msgs.obj (.data:queued_tx)
                  000032a2    0000004c     server_msgs.obj (.data:xxxx_HLS$1)
                  000032ee    00000048     Logger.obj (.data:Passwords)
                  00003336    00000036     HardwareLimits.obj (.data)
                  0000336c    00000034     Billing_Data.obj (.data:Billing_Data)
                  000033a0    0000002e     SharedVariables.obj (.data)
                  000033ce    0000002e     server_msgs.obj (.data)
                  000033fc    0000002b     server_msgs.obj (.data:xxxx_LLS_NS$2)
                  00003427    00000001     --HOLE--
                  00003428    00000028     Tariff.obj (.data:power_brakes)
                  00003450    00000022     app_server_msgs.obj (.data:currentDayProfile)
                  00003472    00000021     server_msgs.obj (.data:xxxx1$3)
                  00003493    00000001     --HOLE--
                  00003494    00000020     emeter-main.obj (.data)
                  000034b4    0000001a     app_server_msgs.obj (.data:currentEnergyLogEntry)
                  000034ce    00000019     SharedVariables.obj (.data:Device_ID_6)
                  000034e7    00000001     --HOLE--
                  000034e8    00000018     Logger.obj (.data)
                  00003500    00000015     SharedVariables.obj (.data:Device_ID_4)
                  00003515    00000001     --HOLE--
                  00003516    00000015     SharedVariables.obj (.data:Manufacturer_Name)
                  0000352b    00000001     --HOLE--
                  0000352c    00000014     config.obj (.data:authentications)
                  00003540    00000014     config.obj (.data:known_far_msap_list)
                  00003554    00000013     SharedVariables.obj (.data:Device_ID_3)
                  00003567    00000001     --HOLE--
                  00003568    00000013     PLC_UART.obj (.data)
                  0000357b    00000001     --HOLE--
                  0000357c    00000012     Tamper.obj (.data)
                  0000358e    00000012     config.obj (.data:auth2)
                  000035a0    00000011     config.obj (.data:Calendar_Name_Passive)
                  000035b1    00000001     --HOLE--
                  000035b2    00000011     LCD_C_Graphics.obj (.data)
                  000035c3    00000001     --HOLE--
                  000035c4    00000010     config.obj (.data:Calendar_Name_Active)
                  000035d4    00000010     Tariff.obj (.data)
                  000035e4    00000010     server_msgs.obj (.data:challenge_s2c)
                  000035f4    00000010     app_server_msgs.obj (.data:currentEventLogEntry)
                  00003604    0000000f     config.obj (.data:Billing_Script_Execution_Time_Template)
                  00003613    00000001     --HOLE--
                  00003614    0000000f     config.obj (.data:DiconnectControl_Script_Execution_Time)
                  00003623    00000001     --HOLE--
                  00003624    0000000f     IEC62056_UART.obj (.data)
                  00003633    00000001     --HOLE--
                  00003634    0000000f     PLC.obj (.data)
                  00003643    00000001     --HOLE--
                  00003644    0000000e     config.obj (.data:DeviceIdentifier)
                  00003652    0000000e     SharedVariables.obj (.data:Device_ID_5)
                  00003660    0000000e     config.obj (.data:Special_Days_List_Template)
                  0000366e    0000000e     firmware_loader.obj (.data:firm_image)
                  0000367c    0000000e     firmware_loader.obj (.data:firm_sec)
                  0000368a    0000000d     config.obj (.data:Activate_Passive_Calendar_Time)
                  00003697    00000001     --HOLE--
                  00003698    0000000d     SharedVariables.obj (.data:DateTimeFormat)
                  000036a5    00000001     --HOLE--
                  000036a6    0000000d     config.obj (.data:Last_MD_Rst_DT)
                  000036b3    00000001     --HOLE--
                  000036b4    0000000d     SystemISRs.obj (.data)
                  000036c1    00000001     --HOLE--
                  000036c2    0000000d     UI.obj (.data)
                  000036cf    00000001     --HOLE--
                  000036d0    0000000d     MAC_PIB.obj (.data:device_identifier)
                  000036dd    00000001     --HOLE--
                  000036de    0000000d     config.obj (.data:time_string)
                  000036eb    00000001     --HOLE--
                  000036ec    0000000c     Relay.obj (.data)
                  000036f8    0000000b     SharedVariables.obj (.data:Meter_Sr_No)
                  00003703    00000001     --HOLE--
                  00003704    0000000a     DLMS.obj (.data)
                  0000370e    0000000a     emeter-rtc.obj (.data:default_time)
                  00003718    0000000a     emeter-background.obj (.data)
                  00003722    0000000a     firmware_loader.obj (.data)
                  0000372c    00000009     MAC_PIB.obj (.data)
                  00003735    00000001     --HOLE--
                  00003736    00000008     app_server_msgs.obj (.data:currentHoliday)
                  0000373e    00000008     DLMS.obj (.data:next_inactivity_timeout)
                  00003746    00000008     DLMS.obj (.data:next_octet_timeout)
                  0000374e    00000007     SharedVariables.obj (.data:Device_ID_2)
                  00003755    00000001     --HOLE--
                  00003756    00000007     config.obj (.data:MACAddress)
                  0000375d    00000001     --HOLE--
                  0000375e    00000007     SharedVariables.obj (.data:PLC_FW_Version)
                  00003765    00000001     --HOLE--
                  00003766    00000007     config.obj (.data:image_signature)
                  0000376d    00000001     --HOLE--
                  0000376e    00000006     SharedVariables.obj (.data:Device_ID_7)
                  00003774    00000006     Configration.obj (.data:EUI)
                  0000377a    00000006     config.obj (.data:FirmwareVersionStr)
                  00003780    00000006     FixedActivities.obj (.data)
                  00003786    00000006     iec62056_46_link.obj (.data)
                  0000378c    00000005     utilities.obj (.data)
                  00003791    00000004     Schaduler.obj (.data)
                  00003795    00000003     Errors.obj (.data)
                  00003798    00000003     emeter-rtc.obj (.data)
                  0000379b    00000001     --HOLE--
                  0000379c    00000002     Attach.obj (.data)
                  0000379e    00000002     BatteryMonitor.obj (.data)
                  000037a0    00000002     SharedVariables.obj (.data:Device_ID_8)
                  000037a2    00000002     Configration.obj (.data:LLC_DEF_DEST_LSAP)
                  000037a4    00000002     Configration.obj (.data:LLC_DEF_Node_Address)
                  000037a6    00000002     Configration.obj (.data:LLC_SOURCE_LSAP)

.no_init_ram 
*          0    000037a8    000000a4     UNINITIALIZED
                  000037a8    000000a4     config.obj (.no_init_ram)

.infoD     0    00001800    00000080     
                  00001800    00000080     Calibration.obj (.infoD)

.infoB     0    00001900    00000080     
                  00001900    00000080     LPBU.obj (.infoB)

.stack     0    00003bb0    00000050     UNINITIALIZED
                  00003bb0    00000004     rts430x_lc_rd_eabi.lib : boot.obj (.stack)
                  00003bb4    0000004c     --HOLE--

.text:_isr 
*          0    00004000    00000d0c     
                  00004000    000008a4     emeter-background.obj (.text:_isr:adc_interrupt)
                  000048a4    00000134     emeter-rtc.obj (.text:_isr:one_second_ticker)
                  000049d8    000000d0     IEC62056_UART.obj (.text:_isr:USCI_A1_ISR)
                  00004aa8    000000b6     SystemISRs.obj (.text:_isr:Port_1)
                  00004b5e    00000078     Schaduler.obj (.text:_isr:TIMER2_A1_ISR)
                  00004bd6    00000074     DLMS.obj (.text:_isr:TIMER0_A0_isr)
                  00004c4a    0000005a     SystemISRs.obj (.text:_isr:AUX_ISR)
                  00004ca4    00000044     PLC_UART.obj (.text:_isr:USCI_A0_ISR)
                  00004ce8    0000001a     rts430x_lc_rd_eabi.lib : boot_special.obj (.text:_isr:_c_int00_noargs_noexit)
                  00004d02    00000008                            : isr_trap.obj (.text:_isr:__TI_ISR_TRAP)
                  00004d0a    00000002     unused_interrupts_handler.obj (.text:_isr:ISR_trap)

.binit     0    00004000    00000000     

.cinit     0    0000a41a    000004f2     
                  0000a41a    000004cd     (.cinit..data.load) [load image, compression = rle]
                  0000a8e7    00000001     --HOLE-- [fill = 0]
                  0000a8e8    0000000b     (.cinit..bss.load) [load image, compression = rle]
                  0000a8f3    00000001     --HOLE-- [fill = 0]
                  0000a8f4    00000008     (__TI_handler_table)
                  0000a8fc    00000010     (__TI_cinit_table)

.init_array 
*          0    00004000    00000000     UNINITIALIZED

.text.1    0    00004d0c    00002bda     
                  00004d0c    00000050     SystemISRs.obj (.text:custom_power_restore_handler)
                  00004d5c    00000050     Errors.obj (.text:getNextError)
                  00004dac    00000050     iec62056_46_link.obj (.text:hdlc_async_tx_add_body)
                  00004dfc    00000050     xframe.obj (.text:process_disc_frame)
                  00004e4c    00000050     Logger.obj (.text:setMinValues)
                  00004e9c    0000004e     Errors.obj (.text:AddError)
                  00004eea    0000004e     LCD_C.obj (.text:clear_all_english_indicatros)
                  00004f38    0000004e     DLMS.obj (.text:init_dlms)
                  00004f86    0000004e     LCD_C.obj (.text:show_all_english_indicatros)
                  00004fd4    0000004c     eeprom_read_interface.obj (.text:InitI2C)
                  00005020    0000004c     emeter-toolkit.lib : flash_replace32.obj (.text:flashBackup)
                  0000506c    0000004c     Logger.obj (.text:getMacAddress)
                  000050b8    0000004c     Queue.obj (.text:queue_isFull)
                  00005104    0000004c     rts430x_lc_rd_eabi.lib : fs_toul.obj (.text)
                  00005150    0000004c     UI.obj (.text:testKey)
                  0000519c    0000004c     config.obj (.text:updateBlocksStatus)
                  000051e8    0000004a     Tariff.obj (.text:CalculateBilling)
                  00005232    0000004a     SharedVariables.obj (.text:changeDeviceId5)
                  0000527c    0000004a     SharedVariables.obj (.text:changeDeviceId6)
                  000052c6    0000004a     SharedVariables.obj (.text:changeDeviceId7)
                  00005310    0000004a     uart_comms.obj (.text:configure_uart_port)
                  0000535a    0000004a     config.obj (.text:getSetDeviceIdentifier)
                  000053a4    0000004a     config.obj (.text:getSetMacAddress)
                  000053ee    0000004a     rts430x_lc_rd_eabi.lib : fs_cmp.obj (.text)
                  00005438    0000004a     Logger.obj (.text:setLogicDeviceName)
                  00005482    0000004a     Logger.obj (.text:updatateFirwmareBlockStatus)
                  000054cc    00000048     I2C2EEPROM.obj (.text:EEPROM2_WriteNextLong)
                  00005514    00000048     I2C2.obj (.text:I2C2WriteInt8)
                  0000555c    00000048     SharedVariables.obj (.text:changeDeviceId2)
                  000055a4    00000048     SharedVariables.obj (.text:changeDeviceId4)
                  000055ec    00000048     SharedVariables.obj (.text:changeDeviceId8)
                  00005634    00000048     SharedVariables.obj (.text:changeMeterSerialNumber)
                  0000567c    00000048     config.obj (.text:reset_alarms)
                  000056c4    00000046     server_msgs.obj (.text:check_context_name)
                  0000570a    00000046     Logger.obj (.text:setLastLogAddress)
                  00005750    00000044     Schaduler.obj (.text:ScaduleTask)
                  00005794    00000044     SharedVariables.obj (.text:changeTimeThresholdLongPowerFaile)
                  000057d8    00000044     Schaduler.obj (.text:executeTasks)
                  0000581c    00000044     emeter-rtc.obj (.text:get_weekday)
                  00005860    00000044     emeter-rtc.obj (.text:init_rtc)
                  000058a4    00000044     emeter-rtc.obj (.text:is_time_valid)
                  000058e8    00000044     emeter-foreground.obj (.text:voltage)
                  0000592c    00000044     Logger.obj (.text:writeImageIdentifier)
                  00005970    00000042     I2C2.obj (.text:I2C2GenerateStartCondition)
                  000059b2    00000042     I2C2.obj (.text:I2C2ReadInt8)
                  000059f4    00000042     emeter-main.obj (.text:ProcessDiagnosisResult)
                  00005a36    00000042     Tamper.obj (.text:initTamper)
                  00005a78    00000042     EthioCalender.obj (.text:mod)
                  00005aba    00000042     LCD_C.obj (.text:show_all_non_uint_indicators)
                  00005afc    00000040     MAC_PIB.obj (.text:Get_Mac_PIB_TimedOut)
                  00005b3c    00000040     PLC.obj (.text:InitPLC)
                  00005b7c    00000040     hal_pmm.obj (.text:SetVCore)
                  00005bbc    00000040     rts430x_lc_rd_eabi.lib : asr64.obj (.text:__mspabi_srall)
                  00005bfc    00000040     uart_comms.obj (.text:change_uart_a1_to_7e1_x_bd)
                  00005c3c    00000040     iec62056_46_link.obj (.text:hdlc_async_tx_build)
                  00005c7c    00000040     iec62056_46_link.obj (.text:iec62056_46_link_init)
                  00005cbc    00000040     Logger.obj (.text:isMFormatRequired)
                  00005cfc    00000040     DLMS.obj (.text:process_dlms_frame)
                  00005d3c    00000040     Queue.obj (.text:queue_dequeue)
                  00005d7c    00000040     Queue.obj (.text:queue_enqueue)
                  00005dbc    00000040     rts430x_lc_rd_eabi.lib : div32s.obj (.text)
                  00005dfc    00000040     Logger.obj (.text:setCurrentBalance)
                  00005e3c    00000040     Logger.obj (.text:setRelayStatus)
                  00005e7c    0000003e     Logger.obj (.text:EEPROM_reformatImageTransferStatusBytes)
                  00005eba    0000003e     app_server_msgs.obj (.text:Obj_Event_Log_reset)
                  00005ef8    0000003e     app_server_msgs.obj (.text:Obj_Load_Profile_reset)
                  00005f36    0000003e     LCD_C.obj (.text:clear_all_amharic_indicators)
                  00005f74    0000003e     emeter-toolkit.lib : isqrt32.obj (.text)
                  00005fb2    0000003e     emeter-foreground.obj (.text:frequency)
                  00005ff0    0000003e     rts430x_lc_rd_eabi.lib : asr32.obj (.text:l_asr_const)
                  0000602e    0000003e                            : lsl32.obj (.text:l_lsl_const)
                  0000606c    0000003e                            : lsr32.obj (.text:l_lsr_const)
                  000060aa    0000003e     LCD_C.obj (.text:show_all_amharic_indicators)
                  000060e8    0000003e     Tariff.obj (.text:writeDailyProfilePassive_dlms)
                  00006126    0000003c     DLMS.obj (.text:dl_connect_indication)
                  00006162    0000003c     server_msgs.obj (.text:extract_cosem_asn1)
                  0000619e    0000003c     Logger.obj (.text:getBackToAutoModeTime)
                  000061da    0000003c     Logger.obj (.text:getLastLogAddress)
                  00006216    0000003a     I2C2.obj (.text:I2C2GenerateStopCondition)
                  00006250    0000003a     rts430x_lc_rd_eabi.lib : lsl64.obj (.text:__mspabi_sllll)
                  0000628a    0000003a                            : lsr64.obj (.text:__mspabi_srlll)
                  000062c4    0000003a     uart_comms.obj (.text:change_uart_a1_to_8n1_x_bd)
                  000062fe    0000003a     iec62056_46_link.obj (.text:hdlc_async_tx_add_header)
                  00006338    0000003a     iec62056_46_link.obj (.text:iec62056_46_check_and_set_far_msap)
                  00006372    00000038     Logger.obj (.text:setPowerBreaks)
                  000063aa    00000038     Logger.obj (.text:setRate)
                  000063e2    00000036     SharedVariables.obj (.text:changeDeviceId3)
                  00006418    00000036     SharedVariables.obj (.text:changeTimeThresholdVoltageSag)
                  0000644e    00000036     SharedVariables.obj (.text:changeTimeThresholdVoltageSwell)
                  00006484    00000036     Tariff.obj (.text:loadDailyProfile)
                  000064ba    00000036     Tariff.obj (.text:loadDailyProfilePassive)
                  000064f0    00000036     packing.obj (.text:pack32)
                  00006526    00000036     packing.obj (.text:unpack32)
                  0000655c    00000034     hal_UCS.obj (.text:Init_FLL_Settle)
                  00006590    00000034     UI.obj (.text:SecondBeeps)
                  000065c4    00000034     config.obj (.text:changeDisplayScrollTime)
                  000065f8    00000034     emeter-toolkit.lib : rtc.obj (.text:check_rtc_sumcheck)
                  0000662c    00000034     emeter-setup.obj (.text:disable_analog_front_end)
                  00006660    00000034     emeter-toolkit.lib : dc_filter16.obj (.text)
                  00006694    00000034     emeter-foreground.obj (.text:set_phase_correction)
                  000066c8    00000032     Schaduler.obj (.text:CancelTask2)
                  000066fa    00000032     rts430x_lc_rd_eabi.lib : fs_ultof.obj (.text)
                  0000672c    00000030     LCD_C_Graphics.obj (.text:ClearTamper_c)
                  0000675c    00000030     LCD_C_Graphics.obj (.text:ShowTamper_c)
                  0000678c    00000030     Logger.obj (.text:compare_energy)
                  000067bc    00000030     Logger.obj (.text:compare_event)
                  000067ec    00000030     Logger.obj (.text:getEnergyOverlapFlag)
                  0000681c    00000030     Logger.obj (.text:setBlob)
                  0000684c    00000030     emeter-foreground.obj (.text:set_sd16_phase_correction)
                  0000687c    0000002e     config.obj (.text:Access_Billing_Script_Execution_Time)
                  000068aa    0000002e     config.obj (.text:get_Special_Days_List)
                  000068d8    0000002e     FixedActivities.obj (.text:per_minute_activity)
                  00006906    0000002e     EthioCalender.obj (.text:quotient)
                  00006934    0000002c     config.obj (.text:Access_Day_Profile_Table)
                  00006960    0000002c     config.obj (.text:Access_Day_Profile_Table_Passive)
                  0000698c    0000002c     IEC62056_UART.obj (.text:IEC_Start_SendBuffer)
                  000069b8    0000002c     SharedVariables.obj (.text:changeNumberOfLongPowerFailes)
                  000069e4    0000002c     Logger.obj (.text:getEnergyLogTime)
                  00006a10    0000002c     Logger.obj (.text:getPowerBreaks)
                  00006a3c    0000002c     Logger.obj (.text:getRate)
                  00006a68    0000002c     rts430x_lc_rd_eabi.lib : div16s.obj (.text)
                  00006a94    0000002c     Logger.obj (.text:write_to_eeprom)
                  00006ac0    0000002a     Attach.obj (.text:AttachTimedOut)
                  00006aea    0000002a     PLC.obj (.text:CRC16_UpdateChecksum)
                  00006b14    0000002a     I2C2.obj (.text:PollACK2)
                  00006b3e    0000002a     UI.obj (.text:checkConfigrationPortsStatus)
                  00006b68    0000002a     Tariff.obj (.text:getRateStartIndex)
                  00006b92    0000002a     iec62056_46_link.obj (.text:hdlc_async_rx_init)
                  00006bbc    0000002a     Logger.obj (.text:setAutoDisplayTime)
                  00006be6    0000002a     Logger.obj (.text:setBackToAutoModeTime)
                  00006c10    0000002a     Logger.obj (.text:setConsumptionSinceLastBilling)
                  00006c3a    0000002a     Logger.obj (.text:setFirmwareVersion)
                  00006c64    0000002a     Logger.obj (.text:setTempLastEnergyValue)
                  00006c8e    00000028     hal_UCS.obj (.text:LFXT_Start)
                  00006cb6    00000028     Errors.obj (.text:RemoveError)
                  00006cde    00000026     UI.obj (.text:ToggleBuzzer2)
                  00006d04    00000026     LCD_C.obj (.text:init_lcd_c)
                  00006d2a    00000026     rts430x_lc_rd_eabi.lib : memcmp.obj (.text:memcmp)
                  00006d50    00000026     Logger.obj (.text:setEnergyOverlapFlag)
                  00006d76    00000024     PLC_UART.obj (.text:PLC_Start_SendBuffer)
                  00006d9a    00000024     SharedVariables.obj (.text:changeLoadProfileCapturePeriod)
                  00006dbe    00000024     Logger.obj (.text:getBlob)
                  00006de2    00000024     utilities.obj (.text:getCheckSum)
                  00006e06    00000024     Logger.obj (.text:getTamperCount)
                  00006e2a    00000024     rts430x_lc_rd_eabi.lib : fs_utof.obj (.text)
                  00006e4e    00000024                            : mult32_f5hw.obj (.text)
                  00006e72    00000024     Logger.obj (.text:setTamperCount)
                  00006e96    00000022     MAC_PIB.obj (.text:KeepAlive)
                  00006eb8    00000022     LCD_C.obj (.text:clear_all_units)
                  00006eda    00000022     DLMS.obj (.text:current_time)
                  00006efc    00000022     LCD_C.obj (.text:show_all_units)
                  00006f1e    00000022     Logger.obj (.text:writeImageSize)
                  00006f40    00000022     Logger.obj (.text:writePreviousImageNumber)
                  00006f62    00000020     config.obj (.text:Capture_Instantaneous_EnergyProfile_Data)
                  00006f82    00000020     config.obj (.text:Capture_Instantaneous_Profile_Data)
                  00006fa2    00000020     emeter-toolkit.lib : flash_clr.obj (.text:flash_clr)
                  00006fc2    00000020     Logger.obj (.text:readFirwmareBlockStatus)
                  00006fe2    00000020     emeter-toolkit.lib : rtc.obj (.text:set_rtc_sumcheck)
                  00007002    0000001e     app_server_msgs.obj (.text:Disconnect_script_execute)
                  00007020    0000001e     System_Info.obj (.text:GetSystemInfoRequest)
                  0000703e    0000001e     TI_aes.obj (.text:aes_decrypt)
                  0000705c    0000001e     TI_aes.obj (.text:aes_encrypt)
                  0000707a    0000001e     LCD_C.obj (.text:clear_all_non_uint_indicators)
                  00007098    0000001e     iec62056_46_link.obj (.text:finalise_and_send_frame)
                  000070b6    0000001e     Logger.obj (.text:getAutoDisplayTime)
                  000070d4    0000001e     Logger.obj (.text:getBillingSchema)
                  000070f2    0000001e     Logger.obj (.text:getLanguageSelection)
                  00007110    0000001e     Logger.obj (.text:getMeterConnectedPhase)
                  0000712e    0000001e     Logger.obj (.text:getOperatingMode)
                  0000714c    0000001e     iec62056_46_link.obj (.text:hdlc_async_tx_build_iframe_chunk_add)
                  0000716a    0000001e     Queue.obj (.text:queue_isEmpty)
                  00007188    0000001e     Logger.obj (.text:setBillingCutOffLogOverlapFlag)
                  000071a6    0000001e     Logger.obj (.text:setBillingSchema)
                  000071c4    0000001e     Logger.obj (.text:setEnergyLogTime)
                  000071e2    0000001e     Logger.obj (.text:setEventOverlapFlag)
                  00007200    0000001e     Logger.obj (.text:setLanguageSelection)
                  0000721e    0000001e     Logger.obj (.text:setMeterConnectedPhase)
                  0000723c    0000001e     Logger.obj (.text:setOperatingMode)
                  0000725a    0000001c     Tamper.obj (.text:ProcessTamperUC)
                  00007276    0000001c     rts430x_lc_rd_eabi.lib : mult1632_f5hw.obj (.text:__mpysl)
                  00007292    0000001c     config.obj (.text:getSetOperatingMode)
                  000072ae    0000001c     iec62056_46_link.obj (.text:hdlc_async_tx_init)
                  000072ca    0000001c     iec62056_46_link.obj (.text:iec62056_46_link_idle_timeout)
                  000072e6    0000001c     xframe.obj (.text:process_dm_frame)
                  00007302    0000001c     EthioCalender.obj (.text:toEthioCalender)
                  0000731e    0000001a     I2C2.obj (.text:I2C2RequestTx)
                  00007338    0000001a     iec62056_46_link.obj (.text:crc_itu16)
                  00007352    0000001a     emeter-toolkit.lib : sqac48_16.obj (.text)
                  0000736c    0000001a     Errors.obj (.text:init_ErrorList)
                  00007386    0000001a     packing.obj (.text:pack16)
                  000073a0    0000001a     PLC.obj (.text:wait_StatusAsync)
                  000073ba    00000018     config.obj (.text:calibrateIMeter)
                  000073d2    00000018     config.obj (.text:calibratePMeter)
                  000073ea    00000018     config.obj (.text:calibrateVMeter)
                  00007402    00000018     emeter-toolkit.lib : flash_secure.obj (.text:flash_secure)
                  0000741a    00000018     TI_aes.obj (.text:galois_mul2)
                  00007432    00000018     rts430x_lc_rd_eabi.lib : mult16_f5hw.obj (.text)
                  0000744a    00000018     server_msgs.obj (.text:send_get_response_block)
                  00007462    00000018     LCD_C_Graphics.obj (.text:swtch_to_auto_mode_c)
                  0000747a    00000016     UI.obj (.text:BeepBuzzer)
                  00007490    00000016     PLC.obj (.text:CRC16_BlockChecksum)
                  000074a6    00000016     LCD_C_Graphics.obj (.text:InitGLCD_c)
                  000074bc    00000016     Schaduler.obj (.text:Init_Scheduler)
                  000074d2    00000016     PLC_UART.obj (.text:ResetPLC_StateFlow)
                  000074e8    00000016     I2C2.obj (.text:Slave_Address)
                  000074fe    00000016     iec62056_46_link.obj (.text:hdlc_async_rx_end_in_hdr)
                  00007514    00000016     rts430x_lc_rd_eabi.lib : llabs.obj (.text:llabs)
                  0000752a    00000016                            : memset.obj (.text:memset)
                  00007540    00000016     server_msgs.obj (.text:process_event_notification_request)
                  00007556    00000016     Queue.obj (.text:queue_reinit)
                  0000756c    00000016     rts430x_lc_rd_eabi.lib : div16u.obj (.text)
                  00007582    00000014     PLC_UART.obj (.text:AddtoTXBuffer)
                  00007596    00000014     IEC62056_UART.obj (.text:IEC_AddtoTXBuffer)
                  000075aa    00000014     I2C2.obj (.text:__delay)
                  000075be    00000014     I2C2EEPROM.obj (.text:eeprom_write)
                  000075d2    00000014     server_msgs.obj (.text:extract_ber_field)
                  000075e6    00000014     rts430x_lc_rd_eabi.lib : memcpy.obj (.text:memcpy)
                  000075fa    00000012     config.obj (.text:Access_Disconnect_Scripts)
                  0000760c    00000012     config.obj (.text:Access_GlobalReset_Scripts)
                  0000761e    00000012     config.obj (.text:Access_Season_Profile)
                  00007630    00000012     config.obj (.text:Access_Tariff_Scripts)
                  00007642    00000012     config.obj (.text:Access_Week_Profile_Table)
                  00007654    00000012     I2C2.obj (.text:BussIdeal2)
                  00007666    00000012     I2C2.obj (.text:I2C2Init)
                  00007678    00000012     Tamper.obj (.text:ProcessTamperLC)
                  0000768a    00000012     Relay.obj (.text:ResetRelayPort)
                  0000769c    00000012     UI.obj (.text:ToggleBuzzer)
                  000076ae    00000012     UI.obj (.text:UpadateErrorIndicators)
                  000076c0    00000012     app_server_msgs.obj (.text:change_hls_secret_HS)
                  000076d2    00000012     app_server_msgs.obj (.text:change_hls_secret_LS)
                  000076e4    00000012     app_server_msgs.obj (.text:change_hls_secret_NS)
                  000076f6    00000012     rts430x_lc_rd_eabi.lib : copy_decompress_none.obj (.text:decompress:none:__TI_decompress_none)
                  00007708    00000012     Tamper.obj (.text:initTampperSwitchs)
                  0000771a    00000012     Schaduler.obj (.text:startSchaduler)
                  0000772c    00000010     UI.obj (.text:KeyRealeased_org)
                  0000773c    00000010     SystemISRs.obj (.text:Reset_System)
                  0000774c    00000010     TI_aes.obj (.text:aes_enc_dec)
                  0000775c    00000010     config.obj (.text:getimage_transferred_blocks_status)
                  0000776c    00000010     rts430x_lc_rd_eabi.lib : asr32.obj (.text:l_asr)
                  0000777c    00000010                            : lsl32.obj (.text:l_lsl)
                  0000778c    00000010                            : lsr32.obj (.text:l_lsr)
                  0000779c    0000000e                            : labs.obj (.text:labs)
                  000077aa    0000000e     PLC.obj (.text:otherPLCRequestsTimeOut)
                  000077b8    0000000c     UI.obj (.text:BuzzerOn)
                  000077c4    0000000c     iec62056_46_link.obj (.text:hdlc_async_tx_add_hdr_crc)
                  000077d0    0000000c     Schaduler.obj (.text:stopSchaduler)
                  000077dc    0000000c     packing.obj (.text:unpack16)
                  000077e8    0000000a     UI.obj (.text:BuzzerOff)
                  000077f2    0000000a     I2C2EEPROM.obj (.text:DisableEEPROM2PORT)
                  000077fc    0000000a     IEC62056_UART.obj (.text:IEC_resetTXBuffer)
                  00007806    0000000a     UI.obj (.text:KeyRealeased)
                  00007810    0000000a     rts430x_lc_rd_eabi.lib : abs.obj (.text:abs)
                  0000781a    0000000a     iec62056_46_link.obj (.text:iec62056_46_rx_timeout)
                  00007824    0000000a     iec62056_46_link.obj (.text:iec62056_46_set_far_msap)
                  0000782e    0000000a     Tariff.obj (.text:per_day_activity)
                  00007838    0000000a     app_server_msgs.obj (.text:remote_disconnect)
                  00007842    0000000a     app_server_msgs.obj (.text:remote_reconnect)
                  0000784c    0000000a     rts430x_lc_rd_eabi.lib : lsl16.obj (.text)
                  00007856    0000000a                            : lsr16.obj (.text)
                  00007860    00000008     UI.obj (.text:EnergyLedOff)
                  00007868    00000008     UI.obj (.text:EnergyLedOn)
                  00007870    00000008     UI.obj (.text:RedLedOff)
                  00007878    00000008     UI.obj (.text:RedLedOn)
                  00007880    00000006     rts430x_lc_rd_eabi.lib : exit.obj (.text:abort)
                  00007886    00000006     LCD_C.obj (.text:all_segments_off)
                  0000788c    00000006     rts430x_lc_rd_eabi.lib : copy_decompress_rle.obj (.text:decompress:rle24:__TI_decompress_rle24)
                  00007892    00000006     IEC62056_UART.obj (.text:disableIEC_UART)
                  00007898    00000006     PLC_UART.obj (.text:disablePLC_UART)
                  0000789e    00000006     config.obj (.text:image_activate)
                  000078a4    00000006     config.obj (.text:image_verify)
                  000078aa    00000006     LCD_C_Graphics.obj (.text:switch_to_manual_mode_c)
                  000078b0    00000006     emeter-toolkit.lib : rtc.obj (.text:weekday)
                  000078b6    00000004     rts430x_lc_rd_eabi.lib : pre_init.obj (.text:_system_pre_init)
                  000078ba    00000004     DLMS.obj (.text:dl_disconnect_indication)
                  000078be    00000002     Detach.obj (.text:Detach_Confirm)
                  000078c0    00000002     PHY_PIB.obj (.text:GET_PHY_PIB_rep)
                  000078c2    00000002     System_Info.obj (.text:GetSystemInfoResponse)
                  000078c4    00000002     app_server_msgs.obj (.text:GlobalReset_script_execute)
                  000078c6    00000002     app_server_msgs.obj (.text:Obj_Event_Log_capture)
                  000078c8    00000002     app_server_msgs.obj (.text:Obj_Load_Profile_capture)
                  000078ca    00000002     rts430x_lc_rd_eabi.lib : startup.obj (.text:_system_post_cinit)
                  000078cc    00000002     app_server_msgs.obj (.text:activate_passive_calendar)
                  000078ce    00000002     app_server_msgs.obj (.text:add_object)
                  000078d0    00000002     app_server_msgs.obj (.text:billing_script_execute)
                  000078d2    00000002     Data_Transfer.obj (.text:dataTransferTimedout)
                  000078d4    00000002     app_server_msgs.obj (.text:delete_special_day)
                  000078d6    00000002     DLMS.obj (.text:dl_connect_confirm)
                  000078d8    00000002     config.obj (.text:getSetFwVersion)
                  000078da    00000002     DLMS.obj (.text:iec62056_46_link_idle_restart)
                  000078dc    00000002     app_server_msgs.obj (.text:insert_special_day)
                  000078de    00000002     xframe.obj (.text:process_frmr_frame)
                  000078e0    00000002     xframe.obj (.text:process_ui_frame)
                  000078e2    00000002     app_server_msgs.obj (.text:remove_object)
                  000078e4    00000002     app_server_msgs.obj (.text:tariff_script_execute)

.const     0    000078e6    00002b34     
                  000078e6    0000076c     config.obj (.const:object_list)
                  00008052    00000200     iec62056_46_link.obj (.const:crc_itu16_table)
                  00008252    00000200     PLC.obj (.const:crctable)
                  00008452    00000200     emeter-fir-table.obj (.const:fir_coeffs)
                  00008652    00000100     TI_aes.obj (.const:.string:rsbox)
                  00008752    00000100     TI_aes.obj (.const:.string:sbox)
                  00008852    000000ed     config.obj (.const:.string:Instantaneous_Values_Capture_Objects)
                  0000893f    00000001     --HOLE-- [fill = 0]
                  00008940    000000a5     config.obj (.const:.string:Billing_Profile_Capture_Objects)
                  000089e5    00000001     --HOLE-- [fill = 0]
                  000089e6    00000093     config.obj (.const:.string:Instantaneous_Energy_Capture_Objects2)
                  00008a79    00000001     --HOLE-- [fill = 0]
                  00008a7a    00000093     config.obj (.const:.string:Load_Profile_Capture_Objects)
                  00008b0d    00000001     --HOLE-- [fill = 0]
                  00008b0e    0000008c     config.obj (.const:Obj_Activity_Calendar)
                  00008b9a    0000007e     config.obj (.const:Obj_HDLC_Setup)
                  00008c18    0000007e     config.obj (.const:clock_attrs)
                  00008c96    00000070     config.obj (.const:Obj_Billing_Profile)
                  00008d06    00000070     config.obj (.const:Obj_Instantaneous_Energy_Values)
                  00008d76    00000070     config.obj (.const:Obj_Instantaneous_Values_buff)
                  00008de6    00000070     config.obj (.const:Obj_Load_Profile)
                  00008e56    00000070     config.obj (.const:Obj_StandardEventLog)
                  00008ec6    00000070     config.obj (.const:ln_40_attrs_HS)
                  00008f36    00000070     config.obj (.const:ln_40_attrs_HS_FC)
                  00008fa6    00000070     config.obj (.const:ln_40_attrs_LS)
                  00009016    00000070     config.obj (.const:ln_40_attrs_NS)
                  00009086    00000062     config.obj (.const:Obj_ImageTransfer)
                  000090e8    00000059     config.obj (.const)
                  00009141    00000001     --HOLE-- [fill = 0]
                  00009142    00000056     config.obj (.const:.string:sap_list)
                  00009198    00000052     config.obj (.const:.string:Day_Profile_Table_Passive_Template)
                  000091ea    00000052     config.obj (.const:.string:Day_Profile_Table_Template)
                  0000923c    0000004a     config.obj (.const:.string:Instantanious_Profile_Buffer_Template2)
                  00009286    00000048     Logger.obj (.const:default_keys)
                  000092ce    00000048     Logger.obj (.const:default_passwords)
                  00009316    00000041     config.obj (.const:.string:Billing_Profile_Buffer_Template)
                  00009357    00000001     --HOLE-- [fill = 0]
                  00009358    00000038     config.obj (.const:Obj_Billing_Schedule)
                  00009390    00000038     config.obj (.const:Obj_DiconnectControl_Schedule)
                  000093c8    00000038     config.obj (.const:Obj_DisconnectControl)
                  00009400    00000038     config.obj (.const:Obj_Prime_PLC_FW_Version)
                  00009438    00000036     config.obj (.const:.string:Disconnect_Scripts_Table)
                  0000946e    00000036     config.obj (.const:.string:Tariff_Scripts_Dummy)
                  000094a4    00000033     config.obj (.const:.string:Instantanious_EnergyProfile_Buffer_Template2)
                  000094d7    00000001     --HOLE-- [fill = 0]
                  000094d8    00000030     config.obj (.const:.string:Load_Profile_Buffer_Template)
                  00009508    0000002a     config.obj (.const:ObjClock_Time_Shift_Event_Limit)
                  00009532    0000002a     config.obj (.const:Obj_Active_Demand_Control_Threshold)
                  0000955c    0000002a     config.obj (.const:Obj_Active_Power_Negative)
                  00009586    0000002a     config.obj (.const:Obj_Active_Power_Positive)
                  000095b0    0000002a     config.obj (.const:Obj_CalibrateCMeter)
                  000095da    0000002a     config.obj (.const:Obj_CalibratePMeter)
                  00009604    0000002a     config.obj (.const:Obj_CalibrateVMeter)
                  0000962e    0000002a     config.obj (.const:Obj_Clock_Time_Shift_Invalid_Event)
                  00009658    0000002a     config.obj (.const:Obj_CurrentBalance2)
                  00009682    0000002a     config.obj (.const:Obj_Demand_close_to_contract_power)
                  000096ac    0000002a     config.obj (.const:Obj_DurationOfAllLongPowerFailes)
                  000096d6    0000002a     config.obj (.const:Obj_ExportActivePowerThreshold)
                  00009700    0000002a     config.obj (.const:Obj_Frequency)
                  0000972a    0000002a     config.obj (.const:Obj_ImportActivePowerThreshold)
                  00009754    0000002a     config.obj (.const:Obj_Instantanious_Current_L1)
                  0000977e    0000002a     config.obj (.const:Obj_Instantanious_Power_Factor_Avarage)
                  000097a8    0000002a     config.obj (.const:Obj_Instantanious_Voltage_L1)
                  000097d2    0000002a     config.obj (.const:Obj_KVA_Total)
                  000097fc    0000002a     config.obj (.const:Obj_NeutralCurrent)
                  00009826    0000002a     config.obj (.const:Obj_PF_R)
                  00009850    0000002a     config.obj (.const:Obj_Reactive_Energy_QI)
                  0000987a    0000002a     config.obj (.const:Obj_Reactive_Energy_QII)
                  000098a4    0000002a     config.obj (.const:Obj_Reactive_Energy_QIII)
                  000098ce    0000002a     config.obj (.const:Obj_Reactive_Energy_QIV)
                  000098f8    0000002a     config.obj (.const:Obj_Reactive_Power_Negative)
                  00009922    0000002a     config.obj (.const:Obj_Reactive_Power_Positive)
                  0000994c    0000002a     config.obj (.const:Obj_ResetAlarm)
                  00009976    0000002a     config.obj (.const:Obj_Scroll_Display_Time)
                  000099a0    0000002a     config.obj (.const:Obj_ThresholdLongPowerFaile)
                  000099ca    0000002a     config.obj (.const:Obj_ThresholdVoltageSage)
                  000099f4    0000002a     config.obj (.const:Obj_ThresholdVoltageSwell)
                  00009a1e    0000002a     config.obj (.const:Obj_TimeThresholdLongPowerFaile)
                  00009a48    0000002a     config.obj (.const:Obj_TimeThresholdVoltageSag)
                  00009a72    0000002a     config.obj (.const:Obj_TimeThresholdVoltageSwell)
                  00009a9c    0000002a     config.obj (.const:Obj_Total_Active_Energy_Export)
                  00009ac6    0000002a     config.obj (.const:Obj_Total_Active_Energy_Import)
                  00009af0    0000002a     config.obj (.const:Obj_Voltage_Referance)
                  00009b1a    00000027     config.obj (.const:.string:Standard_Event_Log_Objects)
                  00009b41    00000001     --HOLE-- [fill = 0]
                  00009b42    00000026     config.obj (.const:.string:Season_Profile_Dummy)
                  00009b68    00000020     config.obj (.const:Obj_ImageTransfer_Methods)
                  00009b88    00000020     config.obj (.const:ln_40_methods_HS)
                  00009ba8    00000020     config.obj (.const:ln_40_methods_HS_FC)
                  00009bc8    00000020     config.obj (.const:ln_40_methods_LS)
                  00009be8    00000020     config.obj (.const:ln_40_methods_NS)
                  00009c08    0000001c     config.obj (.const:.string:Billing_Script)
                  00009c24    0000001c     config.obj (.const:.string:GlobalReset_Scripts_Table)
                  00009c40    0000001c     config.obj (.const:.string:Week_Profile_Table_Dummy)
                  00009c5c    0000001c     config.obj (.const:Obj_ActiveQuadrant)
                  00009c78    0000001c     config.obj (.const:Obj_Billing_Script_Table)
                  00009c94    0000001c     config.obj (.const:Obj_Clock_Time_Shift_Event_Limit)
                  00009cb0    0000001c     config.obj (.const:Obj_Cum_MD_Reset_Count)
                  00009ccc    0000001c     config.obj (.const:Obj_Cum_Prog_Count)
                  00009ce8    0000001c     config.obj (.const:Obj_Cum_Tamper_Count)
                  00009d04    0000001c     config.obj (.const:Obj_Currently_Active_Tariff)
                  00009d20    0000001c     config.obj (.const:Obj_DateTime_Format)
                  00009d3c    0000001c     config.obj (.const:Obj_Demand_Integration_Period)
                  00009d58    0000001c     config.obj (.const:Obj_DeviceIdentifier)
                  00009d74    0000001c     config.obj (.const:Obj_Device_ID_2)
                  00009d90    0000001c     config.obj (.const:Obj_Device_ID_3)
                  00009dac    0000001c     config.obj (.const:Obj_Device_ID_4)
                  00009dc8    0000001c     config.obj (.const:Obj_Device_ID_5)
                  00009de4    0000001c     config.obj (.const:Obj_Device_ID_6)
                  00009e00    0000001c     config.obj (.const:Obj_Device_ID_7)
                  00009e1c    0000001c     config.obj (.const:Obj_Device_ID_8)
                  00009e38    0000001c     config.obj (.const:Obj_Disconnet_Script_Table)
                  00009e54    0000001c     config.obj (.const:Obj_ErrorObject)
                  00009e70    0000001c     config.obj (.const:Obj_ExportActivePowerOverThrStatus)
                  00009e8c    0000001c     config.obj (.const:Obj_FirmwareVersion)
                  00009ea8    0000001c     config.obj (.const:Obj_GlobalReset_Script_Table)
                  00009ec4    0000001c     config.obj (.const:Obj_ImportActivePowerOverThrStatus)
                  00009ee0    0000001c     config.obj (.const:Obj_Last_MD_Rst_DT)
                  00009efc    0000001c     config.obj (.const:Obj_MacAddress)
                  00009f18    0000001c     config.obj (.const:Obj_Meter_Sr_No)
                  00009f34    0000001c     config.obj (.const:Obj_NumberOfLongPowerFails)
                  00009f50    0000001c     config.obj (.const:Obj_OpearatingMode)
                  00009f6c    0000001c     config.obj (.const:Obj_Phase_Presence)
                  00009f88    0000001c     config.obj (.const:Obj_Prime_Device_Setup)
                  00009fa4    0000001c     config.obj (.const:Obj_Profile_Capture_Period)
                  00009fc0    0000001c     config.obj (.const:Obj_Special_Days)
                  00009fdc    0000001c     config.obj (.const:Obj_StandardEventItem)
                  00009ff8    0000001c     config.obj (.const:Obj_Tariff_Script_Table)
                  0000a014    0000001c     config.obj (.const:Obj_TransformerRatio_CurrentDen)
                  0000a030    0000001c     config.obj (.const:Obj_TransformerRatio_CurrentNum)
                  0000a04c    0000001c     config.obj (.const:Obj_TransformerRatio_VoltageDen)
                  0000a068    0000001c     config.obj (.const:Obj_TransformerRatio_VoltageNum)
                  0000a084    0000001c     config.obj (.const:sap_41_attrs)
                  0000a0a0    0000001a     config.obj (.const:.string:image_to_activate_info)
                  0000a0ba    0000001a     config.obj (.const:Instantanious_Profile_Column_Szs2)
                  0000a0d4    00000017     iec62056_46_link.obj (.const:.string:body$1)
                  0000a0eb    00000001     --HOLE-- [fill = 0]
                  0000a0ec    00000016     emeter-main.obj (.const:$P$T0$2)
                  0000a102    00000016     PLC.obj (.const:$P$T1$1)
                  0000a118    00000016     Logger.obj (.const:$P$T3$4)
                  0000a12e    00000016     config.obj (.const:Day_Profile_Table_Column_Szs)
                  0000a144    00000013     config.obj (.const:.string:context_info)
                  0000a157    00000001     --HOLE-- [fill = 0]
                  0000a158    00000012     config.obj (.const:.string:Billing_Profile_Sort_Object)
                  0000a16a    00000012     config.obj (.const:.string:Instantaneous_Energy_Sort_Object)
                  0000a17c    00000012     config.obj (.const:.string:Instantaneous_Values_Sort_Object)
                  0000a18e    00000012     config.obj (.const:.string:Load_Profile_Sort_Object)
                  0000a1a0    00000012     config.obj (.const:.string:Standard_Event_Log_Template)
                  0000a1b2    00000012     config.obj (.const:Billing_Profile_Column_Szs)
                  0000a1c4    00000010     config.obj (.const:Bbj_Special_days_Method)
                  0000a1d4    00000010     config.obj (.const:Instantanious_EnergyProfile_Column_Szs2)
                  0000a1e4    00000010     config.obj (.const:Load_Profile_Column_Szs)
                  0000a1f4    00000010     config.obj (.const:Obj_Balance_Methods)
                  0000a204    00000010     config.obj (.const:Obj_Connect_Methods)
                  0000a214    00000010     config.obj (.const:Obj_Event_Log_Methods)
                  0000a224    00000010     config.obj (.const:Obj_Load_Profile_Methods)
                  0000a234    0000000d     config.obj (.const:.string:$P$T0$1)
                  0000a241    00000001     --HOLE-- [fill = 0]
                  0000a242    0000000d     config.obj (.const:.string:$P$T1$2)
                  0000a24f    00000001     --HOLE-- [fill = 0]
                  0000a250    0000000d     config.obj (.const:.string:Executed_Billing_Script)
                  0000a25d    00000001     --HOLE-- [fill = 0]
                  0000a25e    0000000d     config.obj (.const:.string:Executed_DiconnectControl_Script)
                  0000a26b    00000001     --HOLE-- [fill = 0]
                  0000a26c    0000000d     emeter-toolkit.lib : rtc.obj (.const:.string:month_lengths)
                  0000a279    00000001     --HOLE-- [fill = 0]
                  0000a27a    0000000c     Blob.obj (.const:.string:$P$T0$1)
                  0000a286    0000000c     app_server_msgs.obj (.const:.string:$P$T0$1)
                  0000a292    0000000c     app_server_msgs.obj (.const:.string:$P$T1$2)
                  0000a29e    0000000c     app_server_msgs.obj (.const:.string:$P$T5$6)
                  0000a2aa    0000000c     app_server_msgs.obj (.const:.string:$P$T6$7)
                  0000a2b6    0000000c     config.obj (.const:acceptable_conformance)
                  0000a2c2    0000000b     LCD_C.obj (.const:.string:LCD_CHAR)
                  0000a2cd    00000001     --HOLE-- [fill = 0]
                  0000a2ce    0000000b     TI_aes.obj (.const:.string:Rcon)
                  0000a2d9    00000001     --HOLE-- [fill = 0]
                  0000a2da    0000000a     config.obj (.const:$P$T2$3)
                  0000a2e4    0000000a     config.obj (.const:$P$T3$4)
                  0000a2ee    0000000a     config.obj (.const:$P$T4$5)
                  0000a2f8    0000000a     config.obj (.const:$P$T5$6)
                  0000a302    00000008     config.obj (.const:.string:application_context_name_logical_names)
                  0000a30a    00000008     config.obj (.const:.string:auth_mech_name_HS)
                  0000a312    00000008     config.obj (.const:.string:auth_mech_name_LS)
                  0000a31a    00000008     config.obj (.const:.string:auth_mech_name_NS)
                  0000a322    00000008     iec62056_46_link.obj (.const:.string)
                  0000a32a    00000008     config.obj (.const:Obj_Activity_Calendar_Methods)
                  0000a332    00000008     config.obj (.const:Obj_Billing_Script_Methods)
                  0000a33a    00000008     config.obj (.const:Obj_CalibrateCMeter_Methods)
                  0000a342    00000008     config.obj (.const:Obj_CalibratePMeter_Methods)
                  0000a34a    00000008     config.obj (.const:Obj_CalibrateVMeter_Methods)
                  0000a352    00000008     config.obj (.const:Obj_Disconnect_Script_Methods)
                  0000a35a    00000008     config.obj (.const:Obj_GlobalReset_Script_Methods)
                  0000a362    00000008     config.obj (.const:Obj_Reset_Methods)
                  0000a36a    00000008     config.obj (.const:Obj_Tariff_Script_Methods)
                  0000a372    00000008     emeter-foreground.obj (.const:sd16_locations$1)
                  0000a37a    00000007     config.obj (.const:.string:partner_HS)
                  0000a381    00000001     --HOLE-- [fill = 0]
                  0000a382    00000007     config.obj (.const:.string:partner_LS)
                  0000a389    00000001     --HOLE-- [fill = 0]
                  0000a38a    00000007     config.obj (.const:.string:partner_NS)
                  0000a391    00000001     --HOLE-- [fill = 0]
                  0000a392    00000006     Blob.obj (.const:.string:$P$T1$2)
                  0000a398    00000006     config.obj (.const:.string:scalar_unit_Frequency)
                  0000a39e    00000006     config.obj (.const:.string:scalar_unit_I)
                  0000a3a4    00000006     config.obj (.const:.string:scalar_unit_KVA)
                  0000a3aa    00000006     config.obj (.const:.string:scalar_unit_KW)
                  0000a3b0    00000006     config.obj (.const:.string:scalar_unit_PF)
                  0000a3b6    00000006     config.obj (.const:.string:scalar_unit_ThresholdVoltageSag_Swell)
                  0000a3bc    00000006     config.obj (.const:.string:scalar_unit_Time)
                  0000a3c2    00000006     config.obj (.const:.string:scalar_unit_Time_Shift_EvtLim)
                  0000a3c8    00000006     config.obj (.const:.string:scalar_unit_V)
                  0000a3ce    00000006     config.obj (.const:.string:scalar_unit_active_power)
                  0000a3d4    00000006     config.obj (.const:.string:scalar_unit_dem_colseToContractPower)
                  0000a3da    00000006     config.obj (.const:.string:scalar_unit_power_current_voltage_calib)
                  0000a3e0    00000006     config.obj (.const:.string:scalar_unit_reactive_energy)
                  0000a3e6    00000006     config.obj (.const:.string:scalar_unit_referance_voltage)
                  0000a3ec    00000006     config.obj (.const:.string:scalar_unit_total_active_energy_import)
                  0000a3f2    00000006     config.obj (.const:Special_Days_Column_Size)
                  0000a3f8    00000005     Logger.obj (.const:.string:$P$T0$1)
                  0000a3fd    00000001     --HOLE-- [fill = 0]
                  0000a3fe    00000005     Logger.obj (.const:.string:$P$T1$2)
                  0000a403    00000001     --HOLE-- [fill = 0]
                  0000a404    00000004     Logger.obj (.const:.string:$P$T2$3)
                  0000a408    00000004     app_server_msgs.obj (.const:.string:$P$T2$3)
                  0000a40c    00000004     app_server_msgs.obj (.const:.string:$P$T3$4)
                  0000a410    00000004     app_server_msgs.obj (.const:.string:$P$T4$5)
                  0000a414    00000004     config.obj (.const:Standard_Event_Log_Column_Szs)
                  0000a418    00000002     UI.obj (.const)

RTC        0    0000ffd0    00000002     
                  0000ffd0    00000002     emeter-rtc.obj (.int40)

LCD_C      0    0000ffd2    00000002     
                  0000ffd2    00000002     unused_interrupts_handler.obj (.int41)

TIMER3_A1 
*          0    0000ffd4    00000002     
                  0000ffd4    00000002     unused_interrupts_handler.obj (.int42)

TIMER3_A0 
*          0    0000ffd6    00000002     
                  0000ffd6    00000002     unused_interrupts_handler.obj (.int43)

PORT2      0    0000ffd8    00000002     
                  0000ffd8    00000002     unused_interrupts_handler.obj (.int44)

TIMER2_A1 
*          0    0000ffda    00000002     
                  0000ffda    00000002     Schaduler.obj (.int45)

TIMER2_A0 
*          0    0000ffdc    00000002     
                  0000ffdc    00000002     unused_interrupts_handler.obj (.int46)

PORT1      0    0000ffde    00000002     
                  0000ffde    00000002     SystemISRs.obj (.int47)

TIMER1_A1 
*          0    0000ffe0    00000002     
                  0000ffe0    00000002     unused_interrupts_handler.obj (.int48)

TIMER1_A0 
*          0    0000ffe2    00000002     
                  0000ffe2    00000002     unused_interrupts_handler.obj (.int49)

DMA        0    0000ffe4    00000002     
                  0000ffe4    00000002     unused_interrupts_handler.obj (.int50)

AUX        0    0000ffe6    00000002     
                  0000ffe6    00000002     SystemISRs.obj (.int51)

USCI_A2    0    0000ffe8    00000002     
                  0000ffe8    00000002     unused_interrupts_handler.obj (.int52)

USCI_A1    0    0000ffea    00000002     
                  0000ffea    00000002     IEC62056_UART.obj (.int53)

TIMER0_A1 
*          0    0000ffec    00000002     
                  0000ffec    00000002     rts430x_lc_rd_eabi.lib : int54.obj (.int54)

TIMER0_A0 
*          0    0000ffee    00000002     
                  0000ffee    00000002     DLMS.obj (.int55)

SD24B      0    0000fff0    00000002     
                  0000fff0    00000002     emeter-background.obj (.int56)

ADC10      0    0000fff2    00000002     
                  0000fff2    00000002     unused_interrupts_handler.obj (.int57)

USCI_B0    0    0000fff4    00000002     
                  0000fff4    00000002     unused_interrupts_handler.obj (.int58)

USCI_A0    0    0000fff6    00000002     
                  0000fff6    00000002     PLC_UART.obj (.int59)

WDT        0    0000fff8    00000002     
                  0000fff8    00000002     unused_interrupts_handler.obj (.int60)

UNMI       0    0000fffa    00000002     
                  0000fffa    00000002     unused_interrupts_handler.obj (.int61)

SYSNMI     0    0000fffc    00000002     
                  0000fffc    00000002     unused_interrupts_handler.obj (.int62)

.reset     0    0000fffe    00000002     
                  0000fffe    00000002     rts430x_lc_rd_eabi.lib : boot.obj (.reset)

.text.2    0    00010000    00014000     
                  00010000    000013de     LCD_C_Graphics.obj (.text:UpdateDisplay_c)
                  000113de    00000e0e     LCD_C_Graphics.obj (.text:WriteFloat_c)
                  000121ec    000008da     PLC.obj (.text:ProcessRecivedPLCMessage)
                  00012ac6    00000892     server_msgs.obj (.text:send_get_response)
                  00013358    0000084e     Logger.obj (.text:InitLogg)
                  00013ba6    000006d8     emeter-main.obj (.text:main)
                  0001427e    000006d6     app_server_msgs.obj (.text:get_numeric_item)
                  00014954    000006c0     FixedActivities.obj (.text:per_second_activity)
                  00015014    000006ac     Logger.obj (.text:LoadConfigurations)
                  000156c0    0000068a     TI_aes.obj (.text:aes_decr)
                  00015d4a    00000632     iec62056_46_link.obj (.text:iec62056_46_rx_byte)
                  0001637c    000005a8     server_msgs.obj (.text:send_set_response_datablock)
                  00016924    00000584     TI_aes.obj (.text:aes_encr)
                  00016ea8    00000538     server_msgs.obj (.text:send_get_response_block_a)
                  000173e0    0000043a     LCD_C.obj (.text:clear_numbers)
                  0001781a    0000043a     LCD_C.obj (.text:show_numbers)
                  00017c54    000003c4     server_msgs.obj (.text:interpret_and_fill)
                  00018018    00000376     server_msgs.obj (.text:send_get_response_block_b)
                  0001838e    00000372     rts430x_lc_rd_eabi.lib : div64u.obj (.text:__mspabi_divull)
                  00018700    0000036a     LCD_C.obj (.text:clear_date)
                  00018a6a    0000036a     LCD_C.obj (.text:show_date)
                  00018dd4    0000034c     TI_aes.obj (.text:expandKey)
                  00019120    00000338     PLC.obj (.text:InitPLC2)
                  00019458    0000032c     server_msgs.obj (.text:process_aarq)
                  00019784    0000031e     emeter-main.obj (.text:restoreBackup)
                  00019aa2    000002f6     server_msgs.obj (.text:process_get_request)
                  00019d98    000002dc     config.obj (.text:find_num_energy_log__entries_between)
                  0001a074    000002d8     rts430x_lc_rd_eabi.lib : addd.obj (.text:__mspabi_addd)
                  0001a34c    000002be     server_msgs.obj (.text:send_set_response)
                  0001a60a    0000026c     iec62056_46_link.obj (.text:process_rx_frame)
                  0001a876    0000026a     server_msgs.obj (.text:process_set_request)
                  0001aae0    00000252     rts430x_lc_rd_eabi.lib : frcaddd.obj (.text:__TI_frcaddd)
                  0001ad32    00000248     LCD_C.obj (.text:clear_hourminute)
                  0001af7a    00000248     LCD_C.obj (.text:show_hourminute)
                  0001b1c2    00000214     server_msgs.obj (.text:send_aare)
                  0001b3d6    00000208     config.obj (.text:find_num_event_log__entries_between)
                  0001b5de    00000206     server_msgs.obj (.text:compare_and_retrieve)
                  0001b7e4    000001fc     app_server_msgs.obj (.text:get_string_item)
                  0001b9e0    000001f4     firmware_loader.obj (.text:receive_firmware_image)
                  0001bbd4    000001ca     rts430x_lc_rd_eabi.lib : s_floor.obj (.text:floor)
                  0001bd9e    000001c8     server_msgs.obj (.text:extract_cosem_field)
                  0001bf66    000001c6     Configration.obj (.text:Load_System_Config_Request)
                  0001c12c    000001b4     emeter-foreground.obj (.text:active_power)
                  0001c2e0    000001a6     PLC_UART.obj (.text:PLC_Byte_Recived)
                  0001c486    00000192     server_msgs.obj (.text:locate_object_attr)
                  0001c618    00000190     EthioCalender.obj (.text:EthiopianCalender)
                  0001c7a8    00000190     Tamper.obj (.text:UpdateTamperIndicators)
                  0001c938    00000190     emeter-main.obj (.text:perform_low_battry_backup)
                  0001cac8    00000188     Alarm.obj (.text:ALARM_Indication)
                  0001cc50    00000188     emeter-foreground.obj (.text:current)
                  0001cdd8    00000188     Logger.obj (.text:logPowerFailEnergy)
                  0001cf60    00000184     EthioCalender.obj (.text:JulianDayNumber)
                  0001d0e4    00000180     Logger.obj (.text:getTripDuration)
                  0001d264    00000176     server_msgs.obj (.text:send_action_response)
                  0001d3da    00000164     server_msgs.obj (.text:locate_object_method)
                  0001d53e    00000148     emeter-main.obj (.text:performPowerQualityMessurement)
                  0001d686    00000140     rts430x_lc_rd_eabi.lib : div64s.obj (.text:__mspabi_divlli)
                  0001d7c6    00000138     Tariff.obj (.text:per_month_activity)
                  0001d8fe    00000134     utilities.obj (.text:longToString_c)
                  0001da32    00000132     Logger.obj (.text:logBillingCutoffDateLog)
                  0001db64    00000132     rts430x_lc_rd_eabi.lib : fs_add.obj (.text)
                  0001dc96    0000012c     loader.obj (.text)
                  0001ddc2    00000120     Tariff.obj (.text:CalculateTariff_New)
                  0001dee2    0000011e     server_msgs.obj (.text:process_i_body)
                  0001e000    0000011e     server_msgs.obj (.text:type_copy)
                  0001e11e    00000116     emeter-foreground.obj (.text:reactive_power)
                  0001e234    00000114     server_msgs.obj (.text:process_action_request)
                  0001e348    00000110     Logger.obj (.text:getTariffSchaduleTimeslot)
                  0001e458    00000110     Logger.obj (.text:getTariffSchaduleTimeslotPassive)
                  0001e568    0000010e     config.obj (.text:get_date_time_string)
                  0001e676    0000010a     emeter-toolkit.lib : div_sh48.obj (.text:div_sh48)
                  0001e780    00000106     rts430x_lc_rd_eabi.lib : fltulld.obj (.text:__mspabi_fltulld)
                  0001e886    00000106     xframe.obj (.text:process_snrm_frame)
                  0001e98c    00000102     Logger.obj (.text:setTripDuration)
                  0001ea8e    00000100     IEC62056_UART.obj (.text:change_boud_rate)
                  0001eb8e    000000fe     Logger.obj (.text:updateNextLogAddress)
                  0001ec8c    000000fc     emeter-rtc.obj (.text:adjust_rtc)
                  0001ed88    000000f6     app_server_msgs.obj (.text:loadEnergyToRam)
                  0001ee7e    000000f6     Logger.obj (.text:read_from_eeprom)
                  0001ef74    000000f6     FixedActivities.obj (.text:test_current_balance)
                  0001f06a    000000f2     xframe.obj (.text:process_ua_frame)
                  0001f15c    000000ec     iec62056_46_link.obj (.text:hdlc_async_tx_add_address)
                  0001f248    000000e4     PLC.obj (.text:SendMessage)
                  0001f32c    000000e2     self_diagnosis.obj (.text:DiagnosisMeter)
                  0001f40e    000000e0     SystemISRs.obj (.text:custom_power_fail_handler)
                  0001f4ee    000000de     Logger.obj (.text:getPublicHoliday)
                  0001f5cc    000000dc     Logger.obj (.text:getDeviceIDs)
                  0001f6a8    000000d8     rts430x_lc_rd_eabi.lib : cmpd.obj (.text:__mspabi_cmpd)
                  0001f780    000000d6     hal_UCS.obj (.text:Init_FLL)
                  0001f856    000000d0     hal_pmm.obj (.text:SetVCoreUp)
                  0001f926    000000d0     LCD_C_Graphics.obj (.text:UpdateDisplayProgressBar_c)
                  0001f9f6    000000d0     Calibration.obj (.text:updateCalibrationFactor)
                  0001fac6    000000ce     Relay.obj (.text:UpdateRelayStatus)
                  0001fb94    000000ca     Data_Transfer.obj (.text:DataTransferRequest)
                  0001fc5e    000000c6     firmware_loader.obj (.text:decode_hex_to_byte)
                  0001fd24    000000c4     Relay.obj (.text:ConnectMeter)
                  0001fde8    000000c4     Relay.obj (.text:DisconnectMeter)
                  0001feac    000000c0     config.obj (.text:Capture_Load_Profile_Data)
                  0001ff6c    000000c0     I2C2EEPROM.obj (.text:EEPROM2_WriteInt8)
                  0002002c    000000c0     Logger.obj (.text:getNominalValues)
                  000200ec    000000c0     app_server_msgs.obj (.text:loadEventToRam)
                  000201ac    000000c0     utilities.obj (.text:search_nearest_log)
                  0002026c    000000c0     Logger.obj (.text:setDeviceIDs)
                  0002032c    000000c0     app_server_msgs.obj (.text:set_string_item)
                  000203ec    000000be     utilities.obj (.text:getTimeDifferenceInMinutes)
                  000204aa    000000be     iec62056_46_link.obj (.text:hdlc_async_tx_build_iframe)
                  00020568    000000bc     Tariff.obj (.text:LoadTodaysTariff)
                  00020624    000000bc     iec62056_46_link.obj (.text:hdlc_async_tx_end)
                  000206e0    000000bc     app_server_msgs.obj (.text:set_numeric_item)
                  0002079c    000000ba     Relay.obj (.text:IsDisconnectRequired)
                  00020856    000000ba     Logger.obj (.text:isMemFormatted)
                  00020910    000000ba     emeter-setup.obj (.text:system_setup)
                  000209ca    000000b8     emeter-foreground.obj (.text:neutral_current)
                  00020a82    000000b8     rts430x_lc_rd_eabi.lib : fs_mpy.obj (.text)
                  00020b3a    000000b4     config.obj (.text:setGetActivePassiveCalendarTime)
                  00020bee    000000b2     rts430x_lc_rd_eabi.lib : renormd.obj (.text:__TI_renormd)
                  00020ca0    000000b2     utilities.obj (.text:getTime)
                  00020d52    000000b0     config.obj (.text:Capture_Standard_Event_Log)
                  00020e02    000000b0     Blob.obj (.text:ProcessWriteBlob)
                  00020eb2    000000b0     emeter-main.obj (.text:custom_initialisation)
                  00020f62    000000ac     I2C2EEPROM.obj (.text:EEPROM2_ReadInt8)
                  0002100e    000000aa     server_msgs.obj (.text:reply_to_hls_auth)
                  000210b8    000000a8     Attach.obj (.text:Attach_Request)
                  00021160    000000a8     emeter-rtc.obj (.text:bump_rtc_backup)
                  00021208    000000a8     emeter-toolkit.lib : isqrt64.obj (.text)
                  000212b0    000000a6     SharedVariables.obj (.text:ChangeReferanceVoltage)
                  00021356    000000a6     Logger.obj (.text:getMaxValues)
                  000213fc    000000a6     Logger.obj (.text:logEnergy)
                  000214a2    000000a2     hal_pmm.obj (.text:SetVCoreDown)
                  00021544    0000009e     config.obj (.text:image_block_transfer)
                  000215e2    0000009a     config.obj (.text:image_transfer_initiate)
                  0002167c    00000098     Relay.obj (.text:InitRelay)
                  00021714    00000098     utilities.obj (.text:getTimeStamp)
                  000217ac    00000094     Tamper.obj (.text:LCTamperDetected)
                  00021840    00000094     app_server_msgs.obj (.text:loadDailyProfilePassive_dlms)
                  000218d4    00000094     app_server_msgs.obj (.text:loadDailyProfile_dlms)
                  00021968    00000094     UI.obj (.text:processKey)
                  000219fc    00000092     Tamper.obj (.text:UCTamperDetected)
                  00021a8e    00000092     utilities.obj (.text:compare_time)
                  00021b20    00000092     Logger.obj (.text:getEnergy)
                  00021bb2    00000090     Data_Transfer.obj (.text:DataTransferIndication)
                  00021c42    00000090     Logger.obj (.text:getMeterStatus)
                  00021cd2    00000090     emeter-foreground.obj (.text:power_factor)
                  00021d62    00000090     rts430x_lc_rd_eabi.lib : fs_div.obj (.text)
                  00021df2    0000008e     MAC_PIB.obj (.text:GET_MAC_PIB_rep)
                  00021e80    0000008e     config.obj (.text:getimage_first_not_transferred_block_number)
                  00021f0e    0000008e     Logger.obj (.text:setNominalValues)
                  00021f9c    0000008c     emeter-toolkit.lib : flash_replace16.obj (.text:flash_replace16)
                  00022028    0000008a     I2C2EEPROM.obj (.text:EEPROM2_ReadLong)
                  000220b2    0000008a     LCD_C.obj (.text:all_segments_on)
                  0002213c    00000088     Logger.obj (.text:logEvent)
                  000221c4    00000088     Logger.obj (.text:setTariffSchaduleTimeslot)
                  0002224c    00000088     Logger.obj (.text:setTariffSchaduleTimeslotPassive)
                  000222d4    00000086     Tariff.obj (.text:GetCurrentMinuteTariffTimeSlot)
                  0002235a    00000084     I2C2EEPROM.obj (.text:EEPROM2_ReadNextLong)
                  000223de    00000084     I2C2EEPROM.obj (.text:EEPROM2_WriteNextInt8)
                  00022462    00000084     Blob.obj (.text:ProcessReadBlob)
                  000224e6    00000084     Logger.obj (.text:getRTCCheck)
                  0002256a    00000084     Tariff.obj (.text:initTariff)
                  000225ee    00000084     I2C2EEPROM.obj (.text:write_mem)
                  00022672    00000082     rts430x_lc_rd_eabi.lib : autoinit_wdt.obj (.text:_auto_init_hold_wdt)
                  000226f4    00000082     Logger.obj (.text:getEvent)
                  00022776    0000007e     eeprom_read.obj (.text)
                  000227f4    0000007e     Logger.obj (.text:writeFirmwareBlock)
                  00022872    0000007a     Logger.obj (.text:setMaxValues)
                  000228ec    0000007a     emeter-setup.obj (.text:switch_to_normal_mode)
                  00022966    00000078     emeter-foreground.obj (.text:apparent_power)
                  000229de    00000076     config.obj (.text:autentication_secreate_LS)
                  00022a54    00000074     I2C2EEPROM.obj (.text:EEPROM2_ReadNextInt8)
                  00022ac8    00000074     Logger.obj (.text:getMinValues)
                  00022b3c    00000074     iec62056_46_link.obj (.text:send_rr)
                  00022bb0    00000072     Tariff.obj (.text:CheckTariff)
                  00022c22    00000072     Logger.obj (.text:getEnergy2)
                  00022c94    00000072     iec62056_46_link.obj (.text:send_ua)
                  00022d06    00000070     SharedVariables.obj (.text:changeExportActivePowerThreshold)
                  00022d76    00000070     SharedVariables.obj (.text:changeImportActivePowerThreshold)
                  00022de6    00000070     config.obj (.text:find_num_total_Standard_Event_Log_entries)
                  00022e56    0000006e     PLC_UART.obj (.text:InitPLCUART)
                  00022ec4    0000006e     LCD_C_Graphics.obj (.text:display_next_item_c)
                  00022f32    0000006e     config.obj (.text:find_num_total_energy_log_entries)
                  00022fa0    0000006e     iec62056_46_link.obj (.text:send_dm)
                  0002300e    0000006e     iec62056_46_link.obj (.text:send_frmr)
                  0002307c    0000006c     BatteryMonitor.obj (.text:CheckBattery)
                  000230e8    0000006c     server_msgs.obj (.text:send_confirmed_service_error)
                  00023154    0000006c     Logger.obj (.text:setPassword)
                  000231c0    0000006a     IEC62056_UART.obj (.text:InitIECUART)
                  0002322a    0000006a     Logger.obj (.text:getEvent2)
                  00023294    0000006a     Logger.obj (.text:logMeterStatus)
                  000232fe    0000006a     DLMS.obj (.text:send_frame)
                  00023368    00000068     Attach.obj (.text:Attach_Confirm)
                  000233d0    00000068     MAC_PIB.obj (.text:GET_MAC_PIB_Request)
                  00023438    00000068     rts430x_lc_rd_eabi.lib : copy_decompress_rle.obj (.text:__TI_decompress_rle_core)
                  000234a0    00000068                            : fixdul.obj (.text:__mspabi_fixdul)
                  00023508    00000068     Logger.obj (.text:getPassword)
                  00023570    00000066     rts430x_lc_rd_eabi.lib : cpy_tbl.obj (.text:copy_in)
                  000235d6    00000066     Logger.obj (.text:setRTCCheck)
                  0002363c    00000064     I2C2EEPROM.obj (.text:EEPROM2_WriteLong)
                  000236a0    00000060     iec62056_46_link.obj (.text:check_rx_nr)
                  00023700    00000060     Logger.obj (.text:setMacAddress)
                  00023760    0000005e     config.obj (.text:Obj_DecrementBalance)
                  000237be    0000005e     config.obj (.text:Obj_IncrementBalance)
                  0002381c    0000005e     Alarm.obj (.text:SETUP_ALARM_Request)
                  0002387a    0000005e     SharedVariables.obj (.text:changeThresholdLongPowerFaile)
                  000238d8    0000005e     emeter-rtc.obj (.text:getHardwareTime)
                  00023936    0000005c     Relay.obj (.text:CheckConnectionIsEnabled)
                  00023992    0000005c     rts430x_lc_rd_eabi.lib : mult64_f5hw.obj (.text:__mpyll)
                  000239ee    0000005c     flash_programmer.obj (.text)
                  00023a4a    00000058     Tamper.obj (.text:CheckMagneticTamper)
                  00023aa2    00000058     Logger.obj (.text:getCurrentBalance)
                  00023afa    00000058     Logger.obj (.text:getLogicDeviceName)
                  00023b52    00000058     Logger.obj (.text:getRelayStatus)
                  00023baa    00000058     rts430x_lc_rd_eabi.lib : div32u.obj (.text)
                  00023c02    00000056     UI.obj (.text:InitUI)
                  00023c58    00000056     emeter-toolkit.lib : dc_filter24.obj (.text)
                  00023cae    00000054     app_server_msgs.obj (.text:loadCurrentHoliday)
                  00023d02    00000054     Logger.obj (.text:reFormatMemoryFormatIndicator)
                  00023d56    00000052     I2C2.obj (.text:I2C2ACK)
                  00023da8    00000052     I2C2.obj (.text:I2C2NACK)
                  00023dfa    00000052     Shutdown.obj (.text:Shutdown_Request)
                  00023e4c    00000052     SharedVariables.obj (.text:changeThresholdVoltageSag)
                  00023e9e    00000052     Logger.obj (.text:readAllFirwmareBlockStatus)
                  00023ef0    00000050     I2C2.obj (.text:I2C2getACK)
                  00023f40    00000050     SharedVariables.obj (.text:changeCumulativeTamperCount)
                  00023f90    00000050     SharedVariables.obj (.text:changeThresholdVoltageSwell)
                  00023fe0    00000020     config.obj (.text:Capture_Billing_Profile_Data)

MODULE SUMMARY

       Module                          code    ro data   rw data
       ------                          ----    -------   -------
    .\
       emeter-main.obj                 3520    22        860    
       emeter-background.obj           2212    2         24     
       emeter-foreground.obj           1784    8         0      
       emeter-rtc.obj                  1026    2         53     
       emeter-fir-table.obj            0       512       0      
       hal_pmm.obj                     434     0         0      
       emeter-setup.obj                360     0         0      
       hal_UCS.obj                     306     0         0      
       unused_interrupts_handler.obj   2       28        0      
    +--+-------------------------------+-------+---------+---------+
       Total:                          9644    574       937    
                                                                
    .\DLMS\
       config.obj                      3896    8612      660    
       SharedVariables.obj             1546    0         192    
       DLMS.obj                        466     2         736    
       uart_comms.obj                  196     0         0      
       Billing_Data.obj                0       0         52     
    +--+-------------------------------+-------+---------+---------+
       Total:                          6104    8614      1640   
                                                                
    .\DLMS\aes\
       TI_aes.obj                      4030    523       0      
    +--+-------------------------------+-------+---------+---------+
       Total:                          4030    523       0      
                                                                
    .\DLMS\core\
       iec62056_46_link.obj            3928    543       198    
       xframe.obj                      616     0         0      
       packing.obj                     146     0         0      
    +--+-------------------------------+-------+---------+---------+
       Total:                          4690    543       198    
                                                                
    .\DLMS\server\
       server_msgs.obj                 13678   0         435    
       app_server_msgs.obj             3704    60        166    
    +--+-------------------------------+-------+---------+---------+
       Total:                          17382   60        601    
                                                                
    .\SM502\
       Logger.obj                      12306   180       136    
       LCD_C_Graphics.obj              9150    0         20     
       LCD_C.obj                       5706    11        0      
       FixedActivities.obj             2020    0         15     
       Tariff.obj                      1464    0         430    
       I2C2EEPROM.obj                  1216    0         18     
       utilities.obj                   1202    0         5      
       Relay.obj                       1046    0         18     
       Tamper.obj                      912     0         19     
       EthioCalender.obj               928     0         0      
       I2C2.obj                        652     0         0      
       SystemISRs.obj                  592     4         13     
       UI.obj                          580     2         13     
       Schaduler.obj                   358     2         148    
       Calibration.obj                 208     128       0      
       Queue.obj                       256     0         0      
       Errors.obj                      224     0         13     
       self_diagnosis.obj              226     0         8      
       LPBU.obj                        0       128       0      
       BatteryMonitor.obj              108     0         4      
       HardwareLimits.obj              0       0         54     
    +--+-------------------------------+-------+---------+---------+
       Total:                          39154   455       914    
                                                                
    .\SM502\IEC62056\
       IEC62056_UART.obj               650     2         221    
    +--+-------------------------------+-------+---------+---------+
       Total:                          650     2         221    
                                                                
    .\SM502\PLC\
       PLC.obj                         3486    534       41     
       PLC_UART.obj                    684     2         2241   
       Alarm.obj                       486     0         48     
       Data_Transfer.obj               348     0         120    
       Configration.obj                454     0         12     
       MAC_PIB.obj                     344     0         32     
       Blob.obj                        308     18        16     
       Attach.obj                      314     0         20     
       System_Info.obj                 32      0         66     
       Shutdown.obj                    82      0         0      
       PHY_PIB.obj                     2       0         10     
       Detach.obj                      2       0         4      
    +--+-------------------------------+-------+---------+---------+
       Total:                          6542    554       2610   
                                                                
    .\firmware_loader\
       firmware_loader.obj             698     0         95     
       loader.obj                      300     0         0      
       eeprom_read.obj                 126     0         0      
       flash_programmer.obj            92      0         0      
       eeprom_read_interface.obj       76      0         0      
    +--+-------------------------------+-------+---------+---------+
       Total:                          1292    0         95     
                                                                
    C:\ti\ccs62\ccsv6\tools\compiler\msp430_15.12.3.LTS\lib\rts430x_lc_rd_eabi.lib
       div64u.obj                      882     0         0      
       addd.obj                        728     0         0      
       frcaddd.obj                     594     0         0      
       s_floor.obj                     458     0         0      
       div64s.obj                      320     0         0      
       fs_add.obj                      306     0         0      
       fltulld.obj                     262     0         0      
       cmpd.obj                        216     0         0      
       fs_mpy.obj                      184     0         0      
       renormd.obj                     178     0         0      
       fs_div.obj                      144     0         0      
       autoinit_wdt.obj                130     0         0      
       copy_decompress_rle.obj         110     0         0      
       fixdul.obj                      104     0         0      
       cpy_tbl.obj                     102     0         0      
       mult64_f5hw.obj                 92      0         0      
       div32u.obj                      88      0         0      
       asr32.obj                       78      0         0      
       lsl32.obj                       78      0         0      
       lsr32.obj                       78      0         0      
       fs_toul.obj                     76      0         0      
       fs_cmp.obj                      74      0         0      
       asr64.obj                       64      0         0      
       div32s.obj                      64      0         0      
       lsl64.obj                       58      0         0      
       lsr64.obj                       58      0         0      
       fs_ultof.obj                    50      0         0      
       div16s.obj                      44      0         0      
       memcmp.obj                      38      0         0      
       fs_utof.obj                     36      0         0      
       mult32_f5hw.obj                 36      0         0      
       mult1632_f5hw.obj               28      0         0      
       boot_special.obj                26      0         0      
       mult16_f5hw.obj                 24      0         0      
       div16u.obj                      22      0         0      
       llabs.obj                       22      0         0      
       memset.obj                      22      0         0      
       memcpy.obj                      20      0         0      
       copy_decompress_none.obj        18      0         0      
       labs.obj                        14      0         0      
       abs.obj                         10      0         0      
       lsl16.obj                       10      0         0      
       lsr16.obj                       10      0         0      
       isr_trap.obj                    8       0         0      
       exit.obj                        6       0         0      
       pre_init.obj                    4       0         0      
       boot.obj                        0       2         0      
       int54.obj                       0       2         0      
       startup.obj                     2       0         0      
    +--+-------------------------------+-------+---------+---------+
       Total:                          5976    4         0      
                                                                
    M:/sm502-CCS/final/SM502_ccs/emeter-toolkit/Debug/emeter-toolkit.lib
       div_sh48.obj                    266     0         0      
       isqrt64.obj                     168     0         0      
       flash_replace16.obj             140     0         0      
       rtc.obj                         90      13        0      
       dc_filter24.obj                 86      0         0      
       flash_replace32.obj             76      0         0      
       isqrt32.obj                     62      0         0      
       dc_filter16.obj                 52      0         0      
       flash_clr.obj                   32      0         0      
       sqac48_16.obj                   26      0         0      
       flash_secure.obj                24      0         0      
    +--+-------------------------------+-------+---------+---------+
       Total:                          1022    13        0      
                                                                
       Stack:                          0       0         80     
       Linker Generated:               0       1264      0      
    +--+-------------------------------+-------+---------+---------+
       Grand Total:                    96486   12606     7296   


LINKER GENERATED COPY TABLES

__TI_cinit_table @ 0000a8fc records: 2, size/record: 8, table size: 16
	.data: load addr=0000a41a, load size=000004cd bytes, run addr=000030de, run size=000006ca bytes, compression=rle
	.bss: load addr=0000a8e8, load size=0000000b bytes, run addr=00001c00, run size=000014dd bytes, compression=rle


LINKER GENERATED HANDLER TABLE

__TI_handler_table @ 0000a8f4 records: 2, size/record: 4, table size: 8
	index: 0, handler: __TI_decompress_rle24
	index: 1, handler: __TI_decompress_none


GLOBAL SYMBOLS: SORTED ALPHABETICALLY BY Name 

address   name                                        
-------   ----                                        
00000740  ADC10CTL0                                   
00000741  ADC10CTL0_H                                 
00000740  ADC10CTL0_L                                 
00000742  ADC10CTL1                                   
00000743  ADC10CTL1_H                                 
00000742  ADC10CTL1_L                                 
00000744  ADC10CTL2                                   
00000745  ADC10CTL2_H                                 
00000744  ADC10CTL2_L                                 
00000748  ADC10HI                                     
00000749  ADC10HI_H                                   
00000748  ADC10HI_L                                   
0000075a  ADC10IE                                     
0000075b  ADC10IE_H                                   
0000075a  ADC10IE_L                                   
0000075c  ADC10IFG                                    
0000075d  ADC10IFG_H                                  
0000075c  ADC10IFG_L                                  
0000075e  ADC10IV                                     
0000075f  ADC10IV_H                                   
0000075e  ADC10IV_L                                   
00000746  ADC10LO                                     
00000747  ADC10LO_H                                   
00000746  ADC10LO_L                                   
0000074a  ADC10MCTL0                                  
0000074b  ADC10MCTL0_H                                
0000074a  ADC10MCTL0_L                                
00000752  ADC10MEM0                                   
00000753  ADC10MEM0_H                                 
00000752  ADC10MEM0_L                                 
0001cac8  ALARM_Indication                            
000009f2  AUX2CHCTL                                   
000009f3  AUX2CHCTL_H                                 
000009f2  AUX2CHCTL_L                                 
000009f4  AUX3CHCTL                                   
000009f5  AUX3CHCTL_H                                 
000009f4  AUX3CHCTL_L                                 
000009f6  AUXADCCTL                                   
000009f7  AUXADCCTL_H                                 
000009f6  AUXADCCTL_L                                 
000009e0  AUXCTL0                                     
000009e1  AUXCTL0_H                                   
000009e0  AUXCTL0_L                                   
000009e2  AUXCTL1                                     
000009e3  AUXCTL1_H                                   
000009e2  AUXCTL1_L                                   
000009e4  AUXCTL2                                     
000009e5  AUXCTL2_H                                   
000009e4  AUXCTL2_L                                   
000009fc  AUXIE                                       
000009fd  AUXIE_H                                     
000009fc  AUXIE_L                                     
000009fa  AUXIFG                                      
000009fb  AUXIFG_H                                    
000009fa  AUXIFG_L                                    
000009fe  AUXIV                                       
000009ff  AUXIV_H                                     
000009fe  AUXIV_L                                     
00004c4a  AUX_ISR                                     
0000687c  Access_Billing_Script_Execution_Time        
00006934  Access_Day_Profile_Table                    
00006960  Access_Day_Profile_Table_Passive            
000075fa  Access_Disconnect_Scripts                   
0000760c  Access_GlobalReset_Scripts                  
0000761e  Access_Season_Profile                       
00007630  Access_Tariff_Scripts                       
00007642  Access_Week_Profile_Table                   
0000368a  Activate_Passive_Calendar_Time              
000030c8  ActivePowerTimer                            
00003356  ActivePowerTripDuration                     
00003497  ActiveQuadrant                              
000033b0  Active_Demand_Control_Threshold             
00004e9c  AddError                                    
00007582  AddtoTXBuffer                               
00002fea  AlarmIndiation                              
00006ac0  AttachTimedOut                              
00023368  Attach_Confirm                              
000210b8  Attach_Request                              
000033e3  Authorised                                  
000036ee  AutoConnect                                 
000035ba  AutoDisplayTime                             
00000480  BAKMEM0                                     
00000481  BAKMEM0_H                                   
00000480  BAKMEM0_L                                   
00000482  BAKMEM1                                     
00000483  BAKMEM1_H                                   
00000482  BAKMEM1_L                                   
00000484  BAKMEM2                                     
00000485  BAKMEM2_H                                   
00000484  BAKMEM2_L                                   
00000486  BAKMEM3                                     
00000487  BAKMEM3_H                                   
00000486  BAKMEM3_L                                   
000004be  BCD2BIN                                     
000004bc  BIN2BCD                                     
000035be  BackToAutoModeTime                          
0000300a  Balance_PostPaid                            
00003352  Basic_Current                               
0000747a  BeepBuzzer                                  
0000336c  Billing_Data                                
00009316  Billing_Profile_Buffer_Template             
00008940  Billing_Profile_Capture_Objects             
0000913c  Billing_Profile_Capture_Period              
0000a1b2  Billing_Profile_Column_Szs                  
00009138  Billing_Profile_Entries                     
00009134  Billing_Profile_Entries_In_Use              
00009140  Billing_Profile_Sort_Method                 
0000a158  Billing_Profile_Sort_Object                 
00009c08  Billing_Script                              
00003604  Billing_Script_Execution_Time_Template      
00009108  Billing_Script_Type                         
00007654  BussIdeal2                                  
000077e8  BuzzerOff                                   
000077b8  BuzzerOn                                    
00007880  C$$EXIT                                     
00007490  CRC16_BlockChecksum                         
00006aea  CRC16_UpdateChecksum                        
00000150  CRCDI                                       
00000152  CRCDIRB                                     
00000153  CRCDIRB_H                                   
00000152  CRCDIRB_L                                   
00000151  CRCDI_H                                     
00000150  CRCDI_L                                     
00000154  CRCINIRES                                   
00000155  CRCINIRES_H                                 
00000154  CRCINIRES_L                                 
00000156  CRCRESR                                     
00000157  CRCRESR_H                                   
00000156  CRCRESR_L                                   
000030a8  CalcHeaderCRC                               
000051e8  CalculateBilling                            
0001ddc2  CalculateTariff_New                         
000035c4  Calendar_Name_Active                        
000035a0  Calendar_Name_Passive                       
000066c8  CancelTask2                                 
00023fe0  Capture_Billing_Profile_Data                
00006f62  Capture_Instantaneous_EnergyProfile_Data    
00006f82  Capture_Instantaneous_Profile_Data          
0001feac  Capture_Load_Profile_Data                   
00020d52  Capture_Standard_Event_Log                  
000212b0  ChangeReferanceVoltage                      
0002307c  CheckBattery                                
00023936  CheckConnectionIsEnabled                    
00023a4a  CheckMagneticTamper                         
00022bb0  CheckTariff                                 
00003704  Chunk_Size                                  
0000672c  ClearTamper_c                               
000033a4  ClockTimeShiftInvalidLim                    
000090f4  Comm_Speed                                  
0001fd24  ConnectMeter                                
00002e5e  ConnectRequestAlarm                         
000035da  ConsumptionSinceLastBilling                 
00003362  CoverRemovalTripDuration                    
000031b6  Cum_MD_Reset_Count                          
000031ae  Cum_Power_Off_Count                         
000031ba  Cum_Prog_Count                              
000031b2  Cum_Tamper_Count                            
000033b8  CurrentActiveTariff                         
0000379e  CurrentBatteryLevel                         
0000303a  CurrentPage                                 
0000303e  CurrentReadAddress                          
00003042  CurrentReadPage                             
00003570  CurrentRxLength                             
000030aa  CurrentSlaveAddress                         
00003795  CurrentSystemErrorsCount                    
0000356a  CurrentTX_Index                             
0000356e  CurrentTxLength                             
00003046  CurrentWriteAddress                         
00003366  Current_Thrushold                           
00003010  Current_balance                             
000035e3  Current_billing_Duration_Counter            
000035e2  Current_billing_Duration_in_days            
00002f4c  Current_billing_Period_start                
00000510  DMA0CTL                                     
00000511  DMA0CTL_H                                   
00000510  DMA0CTL_L                                   
00000516  DMA0DA                                      
00000518  DMA0DAH                                     
00000516  DMA0DAL                                     
00000512  DMA0SA                                      
00000514  DMA0SAH                                     
00000512  DMA0SAL                                     
0000051a  DMA0SZ                                      
00000520  DMA1CTL                                     
00000521  DMA1CTL_H                                   
00000520  DMA1CTL_L                                   
00000526  DMA1DA                                      
00000528  DMA1DAH                                     
00000526  DMA1DAL                                     
00000522  DMA1SA                                      
00000524  DMA1SAH                                     
00000522  DMA1SAL                                     
0000052a  DMA1SZ                                      
00000530  DMA2CTL                                     
00000531  DMA2CTL_H                                   
00000530  DMA2CTL_L                                   
00000536  DMA2DA                                      
00000538  DMA2DAH                                     
00000536  DMA2DAL                                     
00000532  DMA2SA                                      
00000534  DMA2SAH                                     
00000532  DMA2SAL                                     
0000053a  DMA2SZ                                      
00000500  DMACTL0                                     
00000501  DMACTL0_H                                   
00000500  DMACTL0_L                                   
00000502  DMACTL1                                     
00000503  DMACTL1_H                                   
00000502  DMACTL1_L                                   
00000504  DMACTL2                                     
00000505  DMACTL2_H                                   
00000504  DMACTL2_L                                   
00000506  DMACTL3                                     
00000507  DMACTL3_H                                   
00000506  DMACTL3_L                                   
00000508  DMACTL4                                     
00000509  DMACTL4_H                                   
00000508  DMACTL4_L                                   
0000050e  DMAIV                                       
0000050f  DMAIV_H                                     
0000050e  DMAIV_L                                     
00002cb4  DataPayload                                 
00021bb2  DataTransferIndication                      
0001fb94  DataTransferRequest                         
000037a8  Data_Buffer                                 
00003698  DateTimeFormat                              
0000a12e  Day_Profile_Table_Column_Szs                
00009198  Day_Profile_Table_Passive_Template          
000091ea  Day_Profile_Table_Template                  
0000317e  Demand_Integration_Period                   
00003786  Dest_MSAP_Len                               
000078be  Detach_Confirm                              
00003644  DeviceIdentifier                            
00009100  Device_Address                              
0000374e  Device_ID_2                                 
00003554  Device_ID_3                                 
00003500  Device_ID_4                                 
00003652  Device_ID_5                                 
000034ce  Device_ID_6                                 
0000376e  Device_ID_7                                 
000037a0  Device_ID_8                                 
0001f32c  DiagnosisMeter                              
00003614  DiconnectControl_Script_Execution_Time      
00009109  DiconnectControl_Type                       
000077f2  DisableEEPROM2PORT                          
000036ec  Disconnect                                  
0001fde8  DisconnectMeter                             
00002e72  DisconnectRequestAlarm                      
00009438  Disconnect_Scripts_Table                    
00007002  Disconnect_script_execute                   
000033b4  DurationOfAllLongPowerFailes                
00007666  EEPROM2Init                                 
00020f62  EEPROM2_ReadInt8                            
00022028  EEPROM2_ReadLong                            
00022a54  EEPROM2_ReadNextInt8                        
0002235a  EEPROM2_ReadNextLong                        
0001ff6c  EEPROM2_WriteInt8                           
0002363c  EEPROM2_WriteLong                           
000223de  EEPROM2_WriteNextInt8                       
000054cc  EEPROM2_WriteNextLong                       
000227f2  EEPROM_DRIVER_ADDR_END                      
0000003f  EEPROM_DRIVER_LEN                           
000034fa  EEPROM_InitError                            
00005e7c  EEPROM_reformatImageTransferStatusBytes     
00003774  EUI                                         
00007860  EnergyLedOff                                
00007868  EnergyLedOn                                 
00003781  EnergyLoggingTime                           
00002f56  ErrorList                                   
000033be  ErrorValue                                  
00003632  Error_Char_Recived                          
00002f60  Estimated_billing_period_end                
0001c618  EthiopianCalender                           
0000a250  Executed_Billing_Script                     
0000a25e  Executed_DiconnectControl_Script            
000033c4  ExportActivePowerOverThrStatus              
000033ca  ExportActivePowerThreshold                  
00000140  FCTL1                                       
00000141  FCTL1_H                                     
00000140  FCTL1_L                                     
00000144  FCTL3                                       
00000145  FCTL3_H                                     
00000144  FCTL3_L                                     
00000146  FCTL4                                       
00000147  FCTL4_H                                     
00000146  FCTL4_L                                     
00023a48  FLASH_PROGRAMMER_ADDR_END                   
0000002e  FLASH_PROGRAMMER_LEN                        
00003720  F_Count                                     
000034e8  FirmwareVersion                             
0000377a  FirmwareVersionStr                          
000030ac  Frame_Received                              
000233d0  GET_MAC_PIB_Request                         
00021df2  GET_MAC_PIB_rep                             
000078c0  GET_PHY_PIB_rep                             
000222d4  GetCurrentMinuteTariffTimeSlot              
00007020  GetSystemInfoRequest                        
000078c2  GetSystemInfoResponse                       
00005afc  Get_Mac_PIB_TimedOut                        
00009c24  GlobalReset_Scripts_Table                   
000078c4  GlobalReset_script_execute                  
000030ae  HeaderCRC                                   
00023d56  I2C2ACK                                     
00005970  I2C2GenerateStartCondition                  
00006216  I2C2GenerateStopCondition                   
00007666  I2C2Init                                    
00023da8  I2C2NACK                                    
000059b2  I2C2ReadInt8                                
0000731e  I2C2RequestTx                               
00005514  I2C2WriteInt8                               
00023ef0  I2C2getACK                                  
00007596  IEC_AddtoTXBuffer                           
0000362a  IEC_CurrentRxLength                         
00003628  IEC_CurrentTxLength                         
00003630  IEC_RXCount                                 
00003626  IEC_Rx_Buffer_Index                         
0000362d  IEC_Rx_Done                                 
0000698c  IEC_Start_SendBuffer                        
00003624  IEC_Tx_Buffer_Index                         
0000362c  IEC_Tx_Done                                 
00002950  IEC_Tx_Queue                                
000077fc  IEC_resetTXBuffer                           
000036b8  ISR_Debouncer                               
00004d0a  ISR_trap                                    
000033c2  ImportActivePowerOverThrStatus              
000033c6  ImportActivePowerThreshold                  
000090fe  Inactivity_Time_Out                         
000074a6  InitGLCD_c                                  
00004fd4  InitI2C                                     
000231c0  InitIECUART                                 
00013358  InitLogg                                    
00005b3c  InitPLC                                     
00019120  InitPLC2                                    
00022e56  InitPLCUART                                 
0002167c  InitRelay                                   
00023c02  InitUI                                      
0001f780  Init_FLL                                    
0000655c  Init_FLL_Settle                             
000074bc  Init_Scheduler                              
00009112  Instant_Profile_Capture_Period              
0000910e  Instant_Profile_Entries                     
0000910a  Instant_Profile_Entries_In_Use              
00009116  Instant_Profile_Sort_Method                 
00009120  Instant_Scaler_Profile_Capture_Period       
0000911c  Instant_Scaler_Profile_Entries              
00009118  Instant_Scaler_Profile_Entries_In_Use       
00009124  Instant_Scaler_Profile_Sort_Method          
000089e6  Instantaneous_Energy_Capture_Objects2       
000031f0  Instantaneous_Energy_Capture_Period         
000031ec  Instantaneous_Energy_Entries                
000031e8  Instantaneous_Energy_Entries_In_Use         
000031f4  Instantaneous_Energy_Sort_Method            
0000a16a  Instantaneous_Energy_Sort_Object            
00008852  Instantaneous_Values_Capture_Objects        
000031fe  Instantaneous_Values_Capture_Period         
000031fa  Instantaneous_Values_Entries                
000031f6  Instantaneous_Values_Entries_In_Use         
00003202  Instantaneous_Values_Sort_Method            
0000a17c  Instantaneous_Values_Sort_Object            
000094a4  Instantanious_EnergyProfile_Buffer_Template2
0000a1d4  Instantanious_EnergyProfile_Column_Szs2     
0000923c  Instantanious_Profile_Buffer_Template2      
0000a0ba  Instantanious_Profile_Column_Szs2           
000090fc  Inter_Octet_Timeout                         
00009102  Internal_CT_Ratio                           
00009104  Internal_PT_Ratio                           
00003194  Irms_B                                      
0000318c  Irms_R                                      
00003190  Irms_Y                                      
0002079c  IsDisconnectRequired                        
0001cf60  JulianDayNumber                             
00006e96  KeepAlive                                   
000036c7  KeyPadState                                 
00007806  KeyRealeased                                
0000772c  KeyRealeased_org                            
00000a40  LCDBM1                                      
00000a49  LCDBM10                                     
00000a4a  LCDBM11                                     
00000a4b  LCDBM12                                     
00000a4c  LCDBM13                                     
00000a4d  LCDBM14                                     
00000a4e  LCDBM15                                     
00000a4f  LCDBM16                                     
00000a50  LCDBM17                                     
00000a51  LCDBM18                                     
00000a52  LCDBM19                                     
00000a41  LCDBM2                                      
00000a53  LCDBM20                                     
00000a42  LCDBM3                                      
00000a43  LCDBM4                                      
00000a44  LCDBM5                                      
00000a45  LCDBM6                                      
00000a46  LCDBM7                                      
00000a47  LCDBM8                                      
00000a48  LCDBM9                                      
00000a04  LCDCBLKCTL                                  
00000a05  LCDCBLKCTL_H                                
00000a04  LCDCBLKCTL_L                                
00000a12  LCDCCPCTL                                   
00000a13  LCDCCPCTL_H                                 
00000a12  LCDCCPCTL_L                                 
00000a00  LCDCCTL0                                    
00000a01  LCDCCTL0_H                                  
00000a00  LCDCCTL0_L                                  
00000a02  LCDCCTL1                                    
00000a03  LCDCCTL1_H                                  
00000a02  LCDCCTL1_L                                  
00000a1e  LCDCIV                                      
00000a06  LCDCMEMCTL                                  
00000a07  LCDCMEMCTL_H                                
00000a06  LCDCMEMCTL_L                                
00000a0a  LCDCPCTL0                                   
00000a0b  LCDCPCTL0_H                                 
00000a0a  LCDCPCTL0_L                                 
00000a0c  LCDCPCTL1                                   
00000a0d  LCDCPCTL1_H                                 
00000a0c  LCDCPCTL1_L                                 
00000a0e  LCDCPCTL2                                   
00000a0f  LCDCPCTL2_H                                 
00000a0e  LCDCPCTL2_L                                 
00000a08  LCDCVCTL                                    
00000a09  LCDCVCTL_H                                  
00000a08  LCDCVCTL_L                                  
00000a20  LCDM1                                       
00000a29  LCDM10                                      
00000a2a  LCDM11                                      
00000a2b  LCDM12                                      
00000a2c  LCDM13                                      
00000a2d  LCDM14                                      
00000a2e  LCDM15                                      
00000a2f  LCDM16                                      
00000a30  LCDM17                                      
00000a31  LCDM18                                      
00000a32  LCDM19                                      
00000a21  LCDM2                                       
00000a33  LCDM20                                      
00000a34  LCDM21                                      
00000a35  LCDM22                                      
00000a36  LCDM23                                      
00000a37  LCDM24                                      
00000a38  LCDM25                                      
00000a39  LCDM26                                      
00000a3a  LCDM27                                      
00000a3b  LCDM28                                      
00000a3c  LCDM29                                      
00000a22  LCDM3                                       
00000a3d  LCDM30                                      
00000a3e  LCDM31                                      
00000a3f  LCDM32                                      
00000a40  LCDM33                                      
00000a41  LCDM34                                      
00000a42  LCDM35                                      
00000a43  LCDM36                                      
00000a44  LCDM37                                      
00000a45  LCDM38                                      
00000a46  LCDM39                                      
00000a23  LCDM4                                       
00000a47  LCDM40                                      
00000a24  LCDM5                                       
00000a25  LCDM6                                       
00000a26  LCDM7                                       
00000a27  LCDM8                                       
00000a28  LCDM9                                       
0000a2c2  LCD_CHAR                                    
00003584  LCTamperCounter                             
000217ac  LCTamperDetected                            
0000357f  LCTamperSchaduled                           
000036ba  LC_ISR_Counter                              
00006c8e  LFXT_Start                                  
000037a2  LLC_DEF_DEST_LSAP                           
000037a4  LLC_DEF_Node_Address                        
000037a6  LLC_SOURCE_LSAP                             
000035c0  Language                                    
000030c9  LastDisconnectReason                        
000034f6  LastEnergyBillingCuttOffLogAddress          
000034ee  LastEnergyLogAddress                        
000034f2  LastEventLogAddress                         
00002e46  LastTxEnergyCopy                            
000036a6  Last_MD_Rst_DT                              
00015014  LoadConfigurations                          
00020568  LoadTodaysTariff                            
000094d8  Load_Profile_Buffer_Template                
00008a7a  Load_Profile_Capture_Objects                
000031e2  Load_Profile_Capture_Period                 
0000a1e4  Load_Profile_Column_Szs                     
000031de  Load_Profile_Entries                        
000031da  Load_Profile_Entries_In_Use                 
000031e6  Load_Profile_Sort_Method                    
0000a18e  Load_Profile_Sort_Object                    
0000912e  Load_Scaler_Profile_Capture_Period          
0000912a  Load_Scaler_Profile_Entries                 
00009126  Load_Scaler_Profile_Entries_In_Use          
00009132  Load_Scaler_Profile_Sort_Method             
0001bf66  Load_System_Config_Request                  
000030ca  LongPowerFailTimer                          
000004c4  MAC                                         
000004da  MAC32H                                      
000004db  MAC32H_H                                    
000004da  MAC32H_L                                    
000004d8  MAC32L                                      
000004d9  MAC32L_H                                    
000004d8  MAC32L_L                                    
00003756  MACAddress                                  
000004c6  MACS                                        
000004de  MACS32H                                     
000004df  MACS32H_H                                   
000004de  MACS32H_L                                   
000004dc  MACS32L                                     
000004dd  MACS32L_H                                   
000004dc  MACS32L_L                                   
000004c7  MACS_H                                      
000004c6  MACS_L                                      
000004c5  MAC_H                                       
000004c4  MAC_L                                       
00002f6a  MAC_PIB_replay                              
00003340  MAXActivePowerExportTripPoint               
0000333c  MAXActivePowerTripPoint                     
0000333a  MAX_Frequency                               
00003336  MAX_IRMS                                    
000034ec  MAX_LOG_RETRAY                              
00003338  MAX_VRMS                                    
0000334b  MIN_Frequency                               
0000334a  MIN_VRMS                                    
000004c0  MPY                                         
000004ec  MPY32CTL0                                   
000004ed  MPY32CTL0_H                                 
000004ec  MPY32CTL0_L                                 
000004d2  MPY32H                                      
000004d3  MPY32H_H                                    
000004d2  MPY32H_L                                    
000004d0  MPY32L                                      
000004d1  MPY32L_H                                    
000004d0  MPY32L_L                                    
000004c2  MPYS                                        
000004d6  MPYS32H                                     
000004d7  MPYS32H_H                                   
000004d6  MPYS32H_L                                   
000004d4  MPYS32L                                     
000004d5  MPYS32L_H                                   
000004d4  MPYS32L_L                                   
000004c3  MPYS_H                                      
000004c2  MPYS_L                                      
000004c1  MPY_H                                       
000004c0  MPY_L                                       
00003586  MagneticTamperCounter                       
00003580  MagneticTamperSchaduled                     
00003198  Mains_Freq                                  
00003516  Manufacturer_Name                           
000033a3  MaxAllowedTimeShift                         
000035b2  MaxDisplayState                             
000035b3  MaxDisplayStateMode1                        
000090fa  Max_Info_Field_Len_RX                       
000090f8  Max_Info_Field_Len_TX                       
000030b0  MessageStatus                               
000036f8  Meter_Sr_No                                 
00003640  Mode                                        
00003588  NeutralTamperCounter                        
00003364  NeutralTamperTripDuration                   
00003354  Nominal_ActivePower                         
00003353  Nominal_Frequency                           
00003350  Nominal_Voltage                             
0000336a  NumberOfLongPowerFails                      
000004c8  OP2                                         
000004e2  OP2H                                        
000004e3  OP2H_H                                      
000004e2  OP2H_L                                      
000004e0  OP2L                                        
000004e1  OP2L_H                                      
000004e0  OP2L_L                                      
000004c9  OP2_H                                       
000004c8  OP2_L                                       
00023760  Obj_DecrementBalance                        
000078c6  Obj_Event_Log_capture                       
00005eba  Obj_Event_Log_reset                         
000237be  Obj_IncrementBalance                        
000078c8  Obj_Load_Profile_capture                    
00005ef8  Obj_Load_Profile_reset                      
00003182  OperatingMode                               
000033ba  Output_State                                
000030cb  OverCurrentTimer                            
00003358  OverCurrentTripDuration                     
000030cc  OverFrequencyTimer                          
0000335c  OverFrequencyTripDuration                   
000030cd  OverVoltageTimer                            
0000335a  OverVoltageTripDuration                     
0000020e  P1IV                                        
000001c8  P1MAP01                                     
000001c9  P1MAP01_H                                   
000001c8  P1MAP01_L                                   
000001ca  P1MAP23                                     
000001cb  P1MAP23_H                                   
000001ca  P1MAP23_L                                   
000001cc  P1MAP45                                     
000001cd  P1MAP45_H                                   
000001cc  P1MAP45_L                                   
000001ce  P1MAP67                                     
000001cf  P1MAP67_H                                   
000001ce  P1MAP67_L                                   
0000021e  P2IV                                        
000001d0  P2MAP01                                     
000001d1  P2MAP01_H                                   
000001d0  P2MAP01_L                                   
000001d2  P2MAP23                                     
000001d3  P2MAP23_H                                   
000001d2  P2MAP23_L                                   
000001d4  P2MAP45                                     
000001d5  P2MAP45_H                                   
000001d4  P2MAP45_L                                   
000001d6  P2MAP67                                     
000001d7  P2MAP67_H                                   
000001d6  P2MAP67_L                                   
000001d8  P3MAP01                                     
000001d9  P3MAP01_H                                   
000001d8  P3MAP01_L                                   
000001da  P3MAP23                                     
000001db  P3MAP23_H                                   
000001da  P3MAP23_L                                   
000001dc  P3MAP45                                     
000001dd  P3MAP45_H                                   
000001dc  P3MAP45_L                                   
000001de  P3MAP67                                     
000001df  P3MAP67_H                                   
000001de  P3MAP67_L                                   
00000204  PADIR                                       
00000205  PADIR_H                                     
00000204  PADIR_L                                     
00000208  PADS                                        
00000209  PADS_H                                      
00000208  PADS_L                                      
0000021a  PAIE                                        
00000218  PAIES                                       
00000219  PAIES_H                                     
00000218  PAIES_L                                     
0000021b  PAIE_H                                      
0000021a  PAIE_L                                      
0000021c  PAIFG                                       
0000021d  PAIFG_H                                     
0000021c  PAIFG_L                                     
00000200  PAIN                                        
00000201  PAIN_H                                      
00000200  PAIN_L                                      
00000202  PAOUT                                       
00000203  PAOUT_H                                     
00000202  PAOUT_L                                     
00000206  PAREN                                       
00000207  PAREN_H                                     
00000206  PAREN_L                                     
0000020a  PASEL                                       
0000020b  PASEL_H                                     
0000020a  PASEL_L                                     
00000224  PBDIR                                       
00000225  PBDIR_H                                     
00000224  PBDIR_L                                     
00000228  PBDS                                        
00000229  PBDS_H                                      
00000228  PBDS_L                                      
00000220  PBIN                                        
00000221  PBIN_H                                      
00000220  PBIN_L                                      
00000222  PBOUT                                       
00000223  PBOUT_H                                     
00000222  PBOUT_L                                     
00000226  PBREN                                       
00000227  PBREN_H                                     
00000226  PBREN_L                                     
0000022a  PBSEL                                       
0000022b  PBSEL_H                                     
0000022a  PBSEL_L                                     
00000244  PCDIR                                       
00000245  PCDIR_H                                     
00000244  PCDIR_L                                     
00000248  PCDS                                        
00000249  PCDS_H                                      
00000248  PCDS_L                                      
00000240  PCIN                                        
00000241  PCIN_H                                      
00000240  PCIN_L                                      
00000242  PCOUT                                       
00000243  PCOUT_H                                     
00000242  PCOUT_L                                     
00000246  PCREN                                       
00000247  PCREN_H                                     
00000246  PCREN_L                                     
0000024a  PCSEL                                       
0000024b  PCSEL_H                                     
0000024a  PCSEL_L                                     
00000264  PDDIR                                       
00000265  PDDIR_H                                     
00000264  PDDIR_L                                     
00000268  PDDS                                        
00000269  PDDS_H                                      
00000268  PDDS_L                                      
00000260  PDIN                                        
00000261  PDIN_H                                      
00000260  PDIN_L                                      
00000262  PDOUT                                       
00000263  PDOUT_H                                     
00000262  PDOUT_L                                     
00000266  PDREN                                       
00000267  PDREN_H                                     
00000266  PDREN_L                                     
0000026a  PDSEL                                       
0000026b  PDSEL_H                                     
0000026a  PDSEL_L                                     
00000284  PEDIR                                       
00000285  PEDIR_H                                     
00000284  PEDIR_L                                     
00000288  PEDS                                        
00000289  PEDS_H                                      
00000288  PEDS_L                                      
00000280  PEIN                                        
00000281  PEIN_H                                      
00000280  PEIN_L                                      
00000282  PEOUT                                       
00000283  PEOUT_H                                     
00000282  PEOUT_L                                     
00000286  PEREN                                       
00000287  PEREN_H                                     
00000286  PEREN_L                                     
0000028a  PESEL                                       
0000028b  PESEL_H                                     
0000028a  PESEL_L                                     
00002f74  PHY_PIB_replay                              
00000324  PJDIR                                       
00000325  PJDIR_H                                     
00000324  PJDIR_L                                     
00000328  PJDS                                        
00000329  PJDS_H                                      
00000328  PJDS_L                                      
00000320  PJIN                                        
00000321  PJIN_H                                      
00000320  PJIN_L                                      
00000322  PJOUT                                       
00000323  PJOUT_H                                     
00000322  PJOUT_L                                     
00000326  PJREN                                       
00000327  PJREN_H                                     
00000326  PJREN_L                                     
0000032a  PJSEL                                       
0000032b  PJSEL_H                                     
0000032a  PJSEL_L                                     
00003642  PLCOtherRequestsRetryCount                  
0001c2e0  PLC_Byte_Recived                            
0000375e  PLC_FW_Version                              
0000363d  PLC_INIT_STATE                              
000033a2  PLC_Product_ID                              
00006d76  PLC_Start_SendBuffer                        
000033a0  PLC_Vendor_ID                               
00000130  PM5CTL0                                     
00000131  PM5CTL0_H                                   
00000130  PM5CTL0_L                                   
000001c2  PMAPCTL                                     
000001c3  PMAPCTL_H                                   
000001c2  PMAPCTL_L                                   
000001c0  PMAPKEYID                                   
000001c1  PMAPKEYID_H                                 
000001c0  PMAPKEYID_L                                 
00000120  PMMCTL0                                     
00000121  PMMCTL0_H                                   
00000120  PMMCTL0_L                                   
00000122  PMMCTL1                                     
00000123  PMMCTL1_H                                   
00000122  PMMCTL1_L                                   
0000012c  PMMIFG                                      
0000012d  PMMIFG_H                                    
0000012c  PMMIFG_L                                    
0000012e  PMMRIE                                      
0000012f  PMMRIE_H                                    
0000012e  PMMRIE_L                                    
00000039  POWER_HANDLER_LEN                           
000031a2  P_Active                                    
0000304a  P_Active_Negative                           
0000304e  P_Active_Plus                               
000031aa  P_Apparent                                  
000031a6  P_Reactive                                  
00003052  P_Reactive_negative                         
00003056  P_Reactive_positive                         
000032ee  Passwords                                   
000030b2  PayloadCRC                                  
00003498  Phase_Presence                              
00006b14  PollACK2                                    
00004aa8  Port_1                                      
0000371c  Power_good                                  
000059f4  ProcessDiagnosisResult                      
00022462  ProcessReadBlob                             
000121ec  ProcessRecivedPLCMessage                    
00007678  ProcessTamperLC                             
0000725a  ProcessTamperUC                             
00020e02  ProcessWriteBlob                            
00000158  RCCTL0                                      
00000159  RCCTL0_H                                    
00000158  RCCTL0_L                                    
000001b0  REFCTL0                                     
000001b1  REFCTL0_H                                   
000001b0  REFCTL0_L                                   
000004e4  RES0                                        
000004e5  RES0_H                                      
000004e4  RES0_L                                      
000004e6  RES1                                        
000004e7  RES1_H                                      
000004e6  RES1_L                                      
000004e8  RES2                                        
000004e9  RES2_H                                      
000004e8  RES2_L                                      
000004ea  RES3                                        
000004eb  RES3_H                                      
000004ea  RES3_L                                      
000004cc  RESHI                                       
000004cd  RESHI_H                                     
000004cc  RESHI_L                                     
000004ca  RESLO                                       
000004cb  RESLO_H                                     
000004ca  RESLO_L                                     
000004ba  RTCADOWDAY                                  
000004bb  RTCADOWDAY_H                                
000004ba  RTCADOWDAY_L                                
000004b8  RTCAMINHR                                   
000004b9  RTCAMINHR_H                                 
000004b8  RTCAMINHR_L                                 
000004a0  RTCCTL0                                     
000004a1  RTCCTL0_H                                   
000004a0  RTCCTL0_L                                   
000004a2  RTCCTL13                                    
000004a3  RTCCTL13_H                                  
000004a2  RTCCTL13_L                                  
000004b4  RTCDATE                                     
000004b5  RTCDATE_H                                   
000004b4  RTCDATE_L                                   
000004ae  RTCIV                                       
000004a4  RTCOCAL                                     
000004a5  RTCOCAL_H                                   
000004a4  RTCOCAL_L                                   
000004ac  RTCPS                                       
000004a8  RTCPS0CTL                                   
000004a9  RTCPS0CTL_H                                 
000004a8  RTCPS0CTL_L                                 
000004aa  RTCPS1CTL                                   
000004ab  RTCPS1CTL_H                                 
000004aa  RTCPS1CTL_L                                 
000004ad  RTCPS_H                                     
000004ac  RTCPS_L                                     
000004a6  RTCTCMP                                     
000004a7  RTCTCMP_H                                   
000004a6  RTCTCMP_L                                   
000004b0  RTCTIM0                                     
000004b1  RTCTIM0_H                                   
000004b0  RTCTIM0_L                                   
000004b2  RTCTIM1                                     
000004b3  RTCTIM1_H                                   
000004b2  RTCTIM1_L                                   
000004b6  RTCYEAR                                     
000004b7  RTCYEAR_H                                   
000004b6  RTCYEAR_L                                   
00003576  RXCount                                     
00001c00  RX_BUF                                      
0000a2ce  Rcon                                        
000031ca  Reactive_Energy_QI                          
000031ce  Reactive_Energy_QII                         
000031d2  Reactive_Energy_QIII                        
000031d6  Reactive_Energy_QIV                         
00002f04  RecivedMessage                              
00007870  RedLedOff                                   
00007878  RedLedOn                                    
000036ef  RelayTariffAutoConDisconEnabled             
00006cb6  RemoveError                                 
000074d2  ResetPLC_StateFlow                          
0000768a  ResetRelayPort                              
0000773c  Reset_System                                
0000363a  RetryCount                                  
0000356c  Rx_Bufffer_Index                            
00003574  Rx_Done                                     
000033d6  SA_From_Column                              
000033ce  SA_From_Entry                               
00002e86  SA_Range                                    
000033da  SA_Range_Num_Columns                        
000033d8  SA_To_Column                                
000033d2  SA_To_Entry                                 
00000810  SD24BCCTL0                                  
00000811  SD24BCCTL0_H                                
00000810  SD24BCCTL0_L                                
00000818  SD24BCCTL1                                  
00000819  SD24BCCTL1_H                                
00000818  SD24BCCTL1_L                                
00000820  SD24BCCTL2                                  
00000821  SD24BCCTL2_H                                
00000820  SD24BCCTL2_L                                
00000800  SD24BCTL0                                   
00000801  SD24BCTL0_H                                 
00000800  SD24BCTL0_L                                 
00000802  SD24BCTL1                                   
00000803  SD24BCTL1_H                                 
00000802  SD24BCTL1_L                                 
0000080c  SD24BIE                                     
0000080d  SD24BIE_H                                   
0000080c  SD24BIE_L                                   
0000080a  SD24BIFG                                    
0000080b  SD24BIFG_H                                  
0000080a  SD24BIFG_L                                  
00000812  SD24BINCTL0                                 
00000813  SD24BINCTL0_H                               
00000812  SD24BINCTL0_L                               
0000081a  SD24BINCTL1                                 
0000081b  SD24BINCTL1_H                               
0000081a  SD24BINCTL1_L                               
00000822  SD24BINCTL2                                 
00000823  SD24BINCTL2_H                               
00000822  SD24BINCTL2_L                               
0000080e  SD24BIV                                     
0000080f  SD24BIV_H                                   
0000080e  SD24BIV_L                                   
00000852  SD24BMEMH0                                  
00000853  SD24BMEMH0_H                                
00000852  SD24BMEMH0_L                                
00000856  SD24BMEMH1                                  
00000857  SD24BMEMH1_H                                
00000856  SD24BMEMH1_L                                
0000085a  SD24BMEMH2                                  
0000085b  SD24BMEMH2_H                                
0000085a  SD24BMEMH2_L                                
00000850  SD24BMEML0                                  
00000851  SD24BMEML0_H                                
00000850  SD24BMEML0_L                                
00000854  SD24BMEML1                                  
00000855  SD24BMEML1_H                                
00000854  SD24BMEML1_L                                
00000858  SD24BMEML2                                  
00000859  SD24BMEML2_H                                
00000858  SD24BMEML2_L                                
00000814  SD24BOSR0                                   
00000815  SD24BOSR0_H                                 
00000814  SD24BOSR0_L                                 
0000081c  SD24BOSR1                                   
0000081d  SD24BOSR1_H                                 
0000081c  SD24BOSR1_L                                 
00000824  SD24BOSR2                                   
00000825  SD24BOSR2_H                                 
00000824  SD24BOSR2_L                                 
00000816  SD24BPRE0                                   
00000817  SD24BPRE0_H                                 
00000816  SD24BPRE0_L                                 
0000081e  SD24BPRE1                                   
0000081f  SD24BPRE1_H                                 
0000081e  SD24BPRE1_L                                 
00000826  SD24BPRE2                                   
00000827  SD24BPRE2_H                                 
00000826  SD24BPRE2_L                                 
0002381c  SETUP_ALARM_Request                         
00000100  SFRIE1                                      
00000101  SFRIE1_H                                    
00000100  SFRIE1_L                                    
00000102  SFRIFG1                                     
00000103  SFRIFG1_H                                   
00000102  SFRIFG1_L                                   
00000104  SFRRPCR                                     
00000105  SFRRPCR_H                                   
00000104  SFRRPCR_L                                   
000004ce  SUMEXT                                      
000004cf  SUMEXT_H                                    
000004ce  SUMEXT_L                                    
00000124  SVSMHCTL                                    
00000125  SVSMHCTL_H                                  
00000124  SVSMHCTL_L                                  
00000128  SVSMIO                                      
00000129  SVSMIO_H                                    
00000128  SVSMIO_L                                    
00000126  SVSMLCTL                                    
00000127  SVSMLCTL_H                                  
00000126  SVSMLCTL_L                                  
00000198  SYSBERRIV                                   
00000199  SYSBERRIV_H                                 
00000198  SYSBERRIV_L                                 
00000182  SYSBSLC                                     
00000183  SYSBSLC_H                                   
00000182  SYSBSLC_L                                   
00000180  SYSCTL                                      
00000181  SYSCTL_H                                    
00000180  SYSCTL_L                                    
00000186  SYSJMBC                                     
00000187  SYSJMBC_H                                   
00000186  SYSJMBC_L                                   
00000188  SYSJMBI0                                    
00000189  SYSJMBI0_H                                  
00000188  SYSJMBI0_L                                  
0000018a  SYSJMBI1                                    
0000018b  SYSJMBI1_H                                  
0000018a  SYSJMBI1_L                                  
0000018c  SYSJMBO0                                    
0000018d  SYSJMBO0_H                                  
0000018c  SYSJMBO0_L                                  
0000018e  SYSJMBO1                                    
0000018f  SYSJMBO1_H                                  
0000018e  SYSJMBO1_L                                  
0000019e  SYSRSTIV                                    
0000019f  SYSRSTIV_H                                  
0000019e  SYSRSTIV_L                                  
0000019c  SYSSNIV                                     
0000019d  SYSSNIV_H                                   
0000019c  SYSSNIV_L                                   
0000019a  SYSUNIV                                     
0000019b  SYSUNIV_H                                   
0000019a  SYSUNIV_L                                   
00005750  ScaduleTask                                 
00003792  SchadulerIsOn                               
00003793  Schaduler_counter                           
00009b42  Season_Profile_Dummy                        
00006590  SecondBeeps                                 
000035c1  SelectedCalender                            
0001f248  SendMessage                                 
00005b7c  SetVCore                                    
000214a2  SetVCoreDown                                
0001f856  SetVCoreUp                                  
0000675c  ShowTamper_c                                
00023dfa  Shutdown_Request                            
000074e8  Slave_Address                               
00003788  Source_MSAP_Len                             
0000a3f2  Special_Days_Column_Size                    
00003660  Special_Days_List_Template                  
0000a414  Standard_Event_Log_Column_Szs               
00009b1a  Standard_Event_Log_Objects                  
0000a1a0  Standard_Event_Log_Template                 
00003494  SystemStatus                                
00000352  TA0CCR0                                     
00000354  TA0CCR1                                     
00000356  TA0CCR2                                     
00000342  TA0CCTL0                                    
00000344  TA0CCTL1                                    
00000346  TA0CCTL2                                    
00000340  TA0CTL                                      
00000360  TA0EX0                                      
0000036e  TA0IV                                       
00000350  TA0R                                        
00000392  TA1CCR0                                     
00000394  TA1CCR1                                     
00000382  TA1CCTL0                                    
00000384  TA1CCTL1                                    
00000380  TA1CTL                                      
000003a0  TA1EX0                                      
000003ae  TA1IV                                       
00000390  TA1R                                        
00000412  TA2CCR0                                     
00000414  TA2CCR1                                     
00000402  TA2CCTL0                                    
00000404  TA2CCTL1                                    
00000400  TA2CTL                                      
00000420  TA2EX0                                      
0000042e  TA2IV                                       
00000410  TA2R                                        
00000452  TA3CCR0                                     
00000454  TA3CCR1                                     
00000442  TA3CCTL0                                    
00000444  TA3CCTL1                                    
00000440  TA3CTL                                      
00000460  TA3EX0                                      
0000046e  TA3IV                                       
00000450  TA3R                                        
00004bd6  TIMER0_A0_isr                               
00004b5e  TIMER2_A1_ISR                               
00003016  TamperCount                                 
000035d5  TariffError                                 
0000946e  Tariff_Scripts_Dummy                        
0000305a  TempLastEnergyValue                         
000031be  Temp_Uint32                                 
0000334c  ThresholdLongPowerFaile                     
000033b6  ThrusholdPowerDemandCloseToContractPower    
00003344  ThrusholdVoltageSagPer                      
00003346  ThrusholdVoltageSwellPer                    
00003184  TimeShiftEvtInvalidLimVal                   
00003183  TimeShiftEvtLimVal                          
0000334e  TimeThresholdLongPowerFaile                 
000033ae  TimeThresholdPowerDemandExceed              
0000769c  ToggleBuzzer                                
00006cde  ToggleBuzzer2                               
000035d6  TotalKWHRSinceLastBillingPeriod             
00003791  TotalTasks                                  
000031c6  Total_Active_Energy_Export                  
000031c2  Total_Active_Energy_Import                  
000033ac  TransformerRatio_CurrentDen                 
000033aa  TransformerRatio_CurrentNum                 
000033a8  TransformerRatio_VoltageDen                 
000033a6  TransformerRatio_VoltageNum                 
0000362e  Transmit                                    
00003568  Tx_Buffer_Index                             
00003572  Tx_Done                                     
000005d0  UCA0ABCTL                                   
000005c6  UCA0BRW                                     
000005c7  UCA0BRW_H                                   
000005c6  UCA0BRW_L                                   
000005c0  UCA0CTLW0                                   
000005c1  UCA0CTLW0_H                                 
000005c0  UCA0CTLW0_L                                 
000005c2  UCA0CTLW1                                   
000005c3  UCA0CTLW1_H                                 
000005c2  UCA0CTLW1_L                                 
000005da  UCA0IE                                      
000005db  UCA0IE_H                                    
000005da  UCA0IE_L                                    
000005dc  UCA0IFG                                     
000005dd  UCA0IFG_H                                   
000005dc  UCA0IFG_L                                   
000005d2  UCA0IRCTL                                   
000005d3  UCA0IRCTL_H                                 
000005d2  UCA0IRCTL_L                                 
000005de  UCA0IV                                      
000005c8  UCA0MCTLW                                   
000005c9  UCA0MCTLW_H                                 
000005c8  UCA0MCTLW_L                                 
000005cc  UCA0RXBUF                                   
000005cd  UCA0RXBUF_H                                 
000005cc  UCA0RXBUF_L                                 
000005ca  UCA0STATW                                   
000005ce  UCA0TXBUF                                   
000005cf  UCA0TXBUF_H                                 
000005ce  UCA0TXBUF_L                                 
000005f0  UCA1ABCTL                                   
000005e6  UCA1BRW                                     
000005e7  UCA1BRW_H                                   
000005e6  UCA1BRW_L                                   
000005e0  UCA1CTLW0                                   
000005e1  UCA1CTLW0_H                                 
000005e0  UCA1CTLW0_L                                 
000005e2  UCA1CTLW1                                   
000005e3  UCA1CTLW1_H                                 
000005e2  UCA1CTLW1_L                                 
000005fa  UCA1IE                                      
000005fb  UCA1IE_H                                    
000005fa  UCA1IE_L                                    
000005fc  UCA1IFG                                     
000005fd  UCA1IFG_H                                   
000005fc  UCA1IFG_L                                   
000005f2  UCA1IRCTL                                   
000005f3  UCA1IRCTL_H                                 
000005f2  UCA1IRCTL_L                                 
000005fe  UCA1IV                                      
000005e8  UCA1MCTLW                                   
000005e9  UCA1MCTLW_H                                 
000005e8  UCA1MCTLW_L                                 
000005ec  UCA1RXBUF                                   
000005ed  UCA1RXBUF_H                                 
000005ec  UCA1RXBUF_L                                 
000005ea  UCA1STATW                                   
000005ee  UCA1TXBUF                                   
000005ef  UCA1TXBUF_H                                 
000005ee  UCA1TXBUF_L                                 
00000610  UCA2ABCTL                                   
00000606  UCA2BRW                                     
00000607  UCA2BRW_H                                   
00000606  UCA2BRW_L                                   
00000600  UCA2CTLW0                                   
00000601  UCA2CTLW0_H                                 
00000600  UCA2CTLW0_L                                 
00000602  UCA2CTLW1                                   
00000603  UCA2CTLW1_H                                 
00000602  UCA2CTLW1_L                                 
0000061a  UCA2IE                                      
0000061b  UCA2IE_H                                    
0000061a  UCA2IE_L                                    
0000061c  UCA2IFG                                     
0000061d  UCA2IFG_H                                   
0000061c  UCA2IFG_L                                   
00000612  UCA2IRCTL                                   
00000613  UCA2IRCTL_H                                 
00000612  UCA2IRCTL_L                                 
0000061e  UCA2IV                                      
00000608  UCA2MCTLW                                   
00000609  UCA2MCTLW_H                                 
00000608  UCA2MCTLW_L                                 
0000060c  UCA2RXBUF                                   
0000060d  UCA2RXBUF_H                                 
0000060c  UCA2RXBUF_L                                 
0000060a  UCA2STATW                                   
0000060e  UCA2TXBUF                                   
0000060f  UCA2TXBUF_H                                 
0000060e  UCA2TXBUF_L                                 
0000065e  UCB0ADDMASK                                 
0000065f  UCB0ADDMASK_H                               
0000065e  UCB0ADDMASK_L                               
0000065c  UCB0ADDRX                                   
0000065d  UCB0ADDRX_H                                 
0000065c  UCB0ADDRX_L                                 
00000646  UCB0BRW                                     
00000647  UCB0BRW_H                                   
00000646  UCB0BRW_L                                   
00000640  UCB0CTLW0                                   
00000641  UCB0CTLW0_H                                 
00000640  UCB0CTLW0_L                                 
00000642  UCB0CTLW1                                   
00000643  UCB0CTLW1_H                                 
00000642  UCB0CTLW1_L                                 
00000654  UCB0I2COA0                                  
00000655  UCB0I2COA0_H                                
00000654  UCB0I2COA0_L                                
00000656  UCB0I2COA1                                  
00000657  UCB0I2COA1_H                                
00000656  UCB0I2COA1_L                                
00000658  UCB0I2COA2                                  
00000659  UCB0I2COA2_H                                
00000658  UCB0I2COA2_L                                
0000065a  UCB0I2COA3                                  
0000065b  UCB0I2COA3_H                                
0000065a  UCB0I2COA3_L                                
00000660  UCB0I2CSA                                   
00000661  UCB0I2CSA_H                                 
00000660  UCB0I2CSA_L                                 
0000066a  UCB0IE                                      
0000066b  UCB0IE_H                                    
0000066a  UCB0IE_L                                    
0000066c  UCB0IFG                                     
0000066d  UCB0IFG_H                                   
0000066c  UCB0IFG_L                                   
0000066e  UCB0IV                                      
0000064c  UCB0RXBUF                                   
0000064d  UCB0RXBUF_H                                 
0000064c  UCB0RXBUF_L                                 
00000648  UCB0STATW                                   
00000649  UCB0STATW_H                                 
00000648  UCB0STATW_L                                 
0000064a  UCB0TBCNT                                   
0000064b  UCB0TBCNT_H                                 
0000064a  UCB0TBCNT_L                                 
0000064e  UCB0TXBUF                                   
0000064f  UCB0TXBUF_H                                 
0000064e  UCB0TXBUF_L                                 
00000160  UCSCTL0                                     
00000161  UCSCTL0_H                                   
00000160  UCSCTL0_L                                   
00000162  UCSCTL1                                     
00000163  UCSCTL1_H                                   
00000162  UCSCTL1_L                                   
00000164  UCSCTL2                                     
00000165  UCSCTL2_H                                   
00000164  UCSCTL2_L                                   
00000166  UCSCTL3                                     
00000167  UCSCTL3_H                                   
00000166  UCSCTL3_L                                   
00000168  UCSCTL4                                     
00000169  UCSCTL4_H                                   
00000168  UCSCTL4_L                                   
0000016a  UCSCTL5                                     
0000016b  UCSCTL5_H                                   
0000016a  UCSCTL5_L                                   
0000016c  UCSCTL6                                     
0000016d  UCSCTL6_H                                   
0000016c  UCSCTL6_L                                   
0000016e  UCSCTL7                                     
0000016f  UCSCTL7_H                                   
0000016e  UCSCTL7_L                                   
00000170  UCSCTL8                                     
00000171  UCSCTL8_H                                   
00000170  UCSCTL8_L                                   
00003582  UCTamperCounter                             
000219fc  UCTamperDetected                            
0000357e  UCTamperSchaduled                           
000036bc  UC_ISR_Counter                              
00004ca4  USCI_A0_ISR                                 
000049d8  USCI_A1_ISR                                 
000030ce  UnderFrequencyTimer                         
00003360  UnderFrequencyTripDuration                  
000030cf  UnderVoltageTimer                           
0000335e  UnderVoltageTripDuration                    
000076ae  UpadateErrorIndicators                      
0001f926  UpdateDisplayProgressBar_c                  
00010000  UpdateDisplay_c                             
0001fac6  UpdateRelayStatus                           
0001c7a8  UpdateTamperIndicators                      
00003348  VoltageThresholdLongPowerFailePer           
0000318a  Vrms_B                                      
00003186  Vrms_R                                      
00003188  Vrms_Y                                      
0000015c  WDTCTL                                      
0000015d  WDTCTL_H                                    
0000015c  WDTCTL_L                                    
00009c40  Week_Profile_Table_Dummy                    
000090f6  Window_Size_Receive                         
000090f5  Window_Size_Transmit                        
000113de  WriteFloat_c                                
00009106  Year_of_Manufacture                         
00003c00  __STACK_END                                 
00000050  __STACK_SIZE                                
UNDEFED   __TI_BINIT_Base                             
UNDEFED   __TI_BINIT_Limit                            
0000a8fc  __TI_CINIT_Base                             
0000a90c  __TI_CINIT_Limit                            
0000a8f4  __TI_Handler_Table_Base                     
0000a8fc  __TI_Handler_Table_Limit                    
UNDEFED   __TI_INITARRAY_Base                         
UNDEFED   __TI_INITARRAY_Limit                        
00004d02  __TI_ISR_TRAP                               
000076f6  __TI_decompress_none                        
0000788c  __TI_decompress_rle24                       
0001aae0  __TI_frcaddd                                
0000ffd0  __TI_int40                                  
0000ffd2  __TI_int41                                  
0000ffd4  __TI_int42                                  
0000ffd6  __TI_int43                                  
0000ffd8  __TI_int44                                  
0000ffda  __TI_int45                                  
0000ffdc  __TI_int46                                  
0000ffde  __TI_int47                                  
0000ffe0  __TI_int48                                  
0000ffe2  __TI_int49                                  
0000ffe4  __TI_int50                                  
0000ffe6  __TI_int51                                  
0000ffe8  __TI_int52                                  
0000ffea  __TI_int53                                  
0000ffec  __TI_int54                                  
0000ffee  __TI_int55                                  
0000fff0  __TI_int56                                  
0000fff2  __TI_int57                                  
0000fff4  __TI_int58                                  
0000fff6  __TI_int59                                  
0000fff8  __TI_int60                                  
0000fffa  __TI_int61                                  
0000fffc  __TI_int62                                  
ffffffff  __TI_pprof_out_hndl                         
ffffffff  __TI_prof_data_size                         
ffffffff  __TI_prof_data_start                        
00020bee  __TI_renormd                                
0000349e  __backingUp                                 
ffffffff  __c_args__                                  
000075aa  __delay                                     
0001a074  __mspabi_addd                               
0001db6a  __mspabi_addf                               
0001f6a8  __mspabi_cmpd                               
000053ee  __mspabi_cmpf                               
00021d62  __mspabi_divf                               
00006a68  __mspabi_divi                               
00005dbc  __mspabi_divli                              
0001d686  __mspabi_divlli                             
0000756c  __mspabi_divu                               
00023baa  __mspabi_divul                              
0001838e  __mspabi_divull                             
000234a0  __mspabi_fixdul                             
00005104  __mspabi_fixful                             
00006e2a  __mspabi_fltuf                              
000066fa  __mspabi_fltulf                             
0001e780  __mspabi_fltulld                            
00020a82  __mspabi_mpyf                               
00007432  __mspabi_mpyi_f5hw                          
00006e4e  __mspabi_mpyl_f5hw                          
00023992  __mspabi_mpyll_f5hw                         
00007276  __mspabi_mpysl_f5hw                         
00006a68  __mspabi_remi                               
00005dbc  __mspabi_remli                              
0000756c  __mspabi_remu                               
00023baa  __mspabi_remul                              
0000784c  __mspabi_slli                               
0000777c  __mspabi_slll                               
00006066  __mspabi_slll_1                             
00006042  __mspabi_slll_10                            
0000603e  __mspabi_slll_11                            
0000603a  __mspabi_slll_12                            
00006036  __mspabi_slll_13                            
00006032  __mspabi_slll_14                            
0000602e  __mspabi_slll_15                            
00006062  __mspabi_slll_2                             
0000605e  __mspabi_slll_3                             
0000605a  __mspabi_slll_4                             
00006056  __mspabi_slll_5                             
00006052  __mspabi_slll_6                             
0000604e  __mspabi_slll_7                             
0000604a  __mspabi_slll_8                             
00006046  __mspabi_slll_9                             
00006250  __mspabi_sllll                              
0000776c  __mspabi_sral                               
00006028  __mspabi_sral_1                             
00006004  __mspabi_sral_10                            
00006000  __mspabi_sral_11                            
00005ffc  __mspabi_sral_12                            
00005ff8  __mspabi_sral_13                            
00005ff4  __mspabi_sral_14                            
00005ff0  __mspabi_sral_15                            
00006024  __mspabi_sral_2                             
00006020  __mspabi_sral_3                             
0000601c  __mspabi_sral_4                             
00006018  __mspabi_sral_5                             
00006014  __mspabi_sral_6                             
00006010  __mspabi_sral_7                             
0000600c  __mspabi_sral_8                             
00006008  __mspabi_sral_9                             
00005bbc  __mspabi_srall                              
00007856  __mspabi_srli                               
0000778c  __mspabi_srll                               
000060a4  __mspabi_srll_1                             
00006080  __mspabi_srll_10                            
0000607c  __mspabi_srll_11                            
00006078  __mspabi_srll_12                            
00006074  __mspabi_srll_13                            
00006070  __mspabi_srll_14                            
0000606c  __mspabi_srll_15                            
000060a0  __mspabi_srll_2                             
0000609c  __mspabi_srll_3                             
00006098  __mspabi_srll_4                             
00006094  __mspabi_srll_5                             
00006090  __mspabi_srll_6                             
0000608c  __mspabi_srll_7                             
00006088  __mspabi_srll_8                             
00006084  __mspabi_srll_9                             
0000628a  __mspabi_srlll                              
0001db64  __mspabi_subf                               
00022672  _auto_init_hold_wdt                         
00004ce8  _c_int00_noargs_noexit                      
0000fffe  _reset_vector                               
00003bb0  _stack                                      
000078ca  _system_post_cinit                          
000078b6  _system_pre_init                            
00007880  abort                                       
00007810  abs                                         
0000a2b6  acceptable_conformance                      
000030d0  access_selector                             
000078cc  activate_passive_calendar                   
00002f7e  activePassiveCalenderTime                   
0001c12c  active_power                                
00004000  adc_interrupt                               
000030b4  adc_interrupts                              
000078ce  add_object                                  
0001ec8c  adjust_rtc                                  
000156c0  aes_decr                                    
0000703e  aes_decrypt                                 
0000774c  aes_enc_dec                                 
00016924  aes_encr                                    
0000705c  aes_encrypt                                 
00007886  all_segments_off                            
000220b2  all_segments_on                             
00022966  apparent_power                              
0000379c  attachTimeOutCounter                        
000229de  autentication_secreate_LS                   
0000358e  auth2                                       
0000a30a  auth_mech_name_HS                           
0000a312  auth_mech_name_LS                           
0000a31a  auth_mech_name_NS                           
0000352c  authentications                             
00001900  backup                                      
000035d4  billingSchema                               
000078d0  billing_script_execute                      
00003579  blobDataLength                              
00002d6e  block_data                                  
000030b6  btemp                                       
00021160  bump_rtc_backup                             
000036ca  buzeer_time_counter                         
000036c8  buzzer_status                               
00003722  byte_counter                                
00003784  calender_change_counter                     
000073ba  calibrateIMeter                             
000073d2  calibratePMeter                             
000073ea  calibrateVMeter                             
000030d1  ch                                          
00002e96  challenge_c2s                               
000030b8  challenge_c2s_len                           
000035e4  challenge_s2c                               
000023d0  chan1                                       
00023f40  changeCumulativeTamperCount                 
0000555c  changeDeviceId2                             
000063e2  changeDeviceId3                             
000055a4  changeDeviceId4                             
00005232  changeDeviceId5                             
0000527c  changeDeviceId6                             
000052c6  changeDeviceId7                             
000055ec  changeDeviceId8                             
000065c4  changeDisplayScrollTime                     
00022d06  changeExportActivePowerThreshold            
00022d76  changeImportActivePowerThreshold            
00006d9a  changeLoadProfileCapturePeriod              
00005634  changeMeterSerialNumber                     
000069b8  changeNumberOfLongPowerFailes               
0002387a  changeThresholdLongPowerFaile               
00023e4c  changeThresholdVoltageSag                   
00023f90  changeThresholdVoltageSwell                 
00005794  changeTimeThresholdLongPowerFaile           
00006418  changeTimeThresholdVoltageSag               
0000644e  changeTimeThresholdVoltageSwell             
0001ea8e  change_boud_rate                            
000076c0  change_hls_secret_HS                        
000076d2  change_hls_secret_LS                        
000076e4  change_hls_secret_NS                        
00005bfc  change_uart_a1_to_7e1_x_bd                  
000062c4  change_uart_a1_to_8n1_x_bd                  
00006b3e  checkConfigrationPortsStatus                
000065f8  check_rtc_sumcheck                          
00005f36  clear_all_amharic_indicators                
00004eea  clear_all_english_indicatros                
0000707a  clear_all_non_uint_indicators               
00006eb8  clear_all_units                             
00018700  clear_date                                  
0001ad32  clear_hourminute                            
000173e0  clear_numbers                               
0001b5de  compare_and_retrieve                        
0000678c  compare_energy                              
000067bc  compare_event                               
00021a8e  compare_time                                
00002f88  conf                                        
00005310  configure_uart_port                         
00002f10  confirm                                     
000036f1  connect_counter                             
000036f0  connect_timeout                             
000033bd  control_mode                                
000033bc  control_state                               
00023570  copy_in                                     
0000363f  count                                       
00007338  crc_itu16                                   
00008052  crc_itu16_table                             
0000349a  critial_System_error                        
000036b4  csum                                        
0001cc50  current                                     
00003450  currentDayProfile                           
000034b4  currentEnergyLogEntry                       
00002f1c  currentEnergyLogEntryData                   
000035f4  currentEventLogEntry                        
00002f28  currentEventLogEntryData                    
00003736  currentHoliday                              
0000301c  currentHoliday_date                         
00003639  currentMessageType                          
00003214  current_block_number                        
000035b4  current_display_Error                       
000033ec  current_get_block_addr                      
000033f0  current_get_block_callback                  
000033f6  current_get_block_chunk_last                
000033f4  current_get_block_chunk_len                 
000030ba  current_get_block_chunk_len_temp            
000033ea  current_get_block_datatype                  
000033e6  current_get_block_len                       
000033e8  current_get_block_no                        
000033e4  current_get_block_type                      
000030d2  current_reversed                            
00006eda  current_time                                
00003638  current_tx_timeout                          
00020eb2  custom_initialisation                       
0001f40e  custom_power_fail_handler                   
00004d0c  custom_power_restore_handler                
000078d2  dataTransferTimedout                        
0000305e  dayProfileTime1                             
00003062  dayProfileTime2                             
00003066  dayProfileTime3                             
0000306a  dayProfileTime4                             
00006660  dc_filter16                                 
0000668a  dc_filter16_init                            
00023c58  dc_filter24                                 
00023c94  dc_filter24_init                            
0000306e  de_confirm                                  
0000370e  default_time                                
00003706  delay_count                                 
000078d4  delete_special_day                          
00003072  desconnect_val                              
000036d0  device_identifier                           
00007892  disableIEC_UART                             
00007898  disablePLC_UART                             
0000662c  disable_analog_front_end                    
00002f34  disconnect_script                           
000036f7  disconnect_verified                         
00003797  displayCount                                
00003796  displayIndex                                
00022ec4  display_next_item_c                         
0001e676  div_sh48                                    
000078d6  dl_connect_confirm                          
00006126  dl_connect_indication                       
000078ba  dl_disconnect_indication                    
000030bc  download_finished                           
000075be  eeprom_write                                
00003785  elogMinCounter                              
00003499  energy_export_support                       
00002ea6  executable_Task_Index                       
000057d8  executeTasks                                
00018dd4  expandKey                                   
00006162  extract_cosem_asn1                          
00003724  fi                                          
00007098  finalise_and_send_frame                     
00007098  finalise_and_send_iframe                    
00019d98  find_num_energy_log__entries_between        
0001b3d6  find_num_event_log__entries_between         
00022de6  find_num_total_Standard_Event_Log_entries   
00022f32  find_num_total_energy_log_entries           
00008452  fir_coeffs                                  
0000366e  firm_image                                  
0000367c  firm_sec                                    
000034fb  firtstBoot                                  
00005020  flashBackup                                 
00006fa2  flash_clr                                   
00021f9c  flash_replace16                             
00007402  flash_secure                                
0001bbd4  floor                                       
0001bbd4  floorl                                      
00005fb2  frequency                                   
00003728  fs                                          
0000741a  galois_mul2                                 
000070b6  getAutoDisplayTime                          
0000619e  getBackToAutoModeTime                       
000070d4  getBillingSchema                            
00006dbe  getBlob                                     
00006de2  getCheckSum                                 
00023aa2  getCurrentBalance                           
0001f5cc  getDeviceIDs                                
00021b20  getEnergy                                   
00022c22  getEnergy2                                  
000069e4  getEnergyLogTime                            
000067ec  getEnergyOverlapFlag                        
000226f4  getEvent                                    
0002322a  getEvent2                                   
000238d8  getHardwareTime                             
000070f2  getLanguageSelection                        
000061da  getLastLogAddress                           
00023afa  getLogicDeviceName                          
0000506c  getMacAddress                               
00021356  getMaxValues                                
00007110  getMeterConnectedPhase                      
00021c42  getMeterStatus                              
00022ac8  getMinValues                                
00004d5c  getNextError                                
0002002c  getNominalValues                            
0000712e  getOperatingMode                            
00023508  getPassword                                 
00006a10  getPowerBreaks                              
0001f4ee  getPublicHoliday                            
000224e6  getRTCCheck                                 
00006a3c  getRate                                     
00006b68  getRateStartIndex                           
00023b52  getRelayStatus                              
0000535a  getSetDeviceIdentifier                      
000078d8  getSetFwVersion                             
000053a4  getSetMacAddress                            
00007292  getSetOperatingMode                         
00006e06  getTamperCount                              
0001e348  getTariffSchaduleTimeslot                   
0001e458  getTariffSchaduleTimeslotPassive            
00020ca0  getTime                                     
000203ec  getTimeDifferenceInMinutes                  
00021714  getTimeStamp                                
0001d0e4  getTripDuration                             
000068aa  get_Special_Days_List                       
0001e568  get_date_time_string                        
0001427e  get_numeric_item                            
0001b7e4  get_string_item                             
0000581c  get_weekday                                 
00021e80  getimage_first_not_transferred_block_number 
0000775c  getimage_transferred_blocks_status          
00003022  hardware_status                             
00006b92  hdlc_async_rx_init                          
00004dac  hdlc_async_tx_add_body                      
000077c4  hdlc_async_tx_add_hdr_crc                   
000062fe  hdlc_async_tx_add_header                    
00005c3c  hdlc_async_tx_build                         
000204aa  hdlc_async_tx_build_iframe                  
0000714c  hdlc_async_tx_build_iframe_chunk_add        
00020624  hdlc_async_tx_end                           
000072ae  hdlc_async_tx_init                          
00003076  header_array                                
00002ba4  holidays                                    
00006338  iec62056_46_check_and_set_far_msap          
000078da  iec62056_46_link_idle_restart               
000072ca  iec62056_46_link_idle_timeout               
00005c7c  iec62056_46_link_init                       
00015d4a  iec62056_46_rx_byte                         
0000781a  iec62056_46_rx_timeout                      
00007824  iec62056_46_set_far_msap                    
0000307a  iec_tx_buff                                 
0000789e  image_activate                              
0000320a  image_block_size                            
00021544  image_block_transfer                        
00003204  image_first_not_transferred_block_number    
00002eb6  image_ident                                 
0000320e  image_ident_size                            
00003766  image_signature                             
00003210  image_size                                  
0000a0a0  image_to_activate_info                      
00003208  image_transfer_enabled                      
000215e2  image_transfer_initiate                     
000030d3  image_transfer_status                       
000030d4  image_transferred_blocks_status             
000078a4  image_verify                                
00002f40  ind                                         
000231c0  initIEC62056                                
00005a36  initTamper                                  
00007708  initTampperSwitchs                          
0002256a  initTariff                                  
0000736c  init_ErrorList                              
00004f38  init_dlms                                   
00006d04  init_lcd_c                                  
0001dc96  init_loader                                 
00005860  init_rtc                                    
0000358c  init_tamper_time                            
000078dc  insert_special_day                          
00017c54  interpret_and_fill                          
00005cbc  isMFormatRequired                           
00020856  isMemFormatted                              
000058a4  is_time_valid                               
00005f74  isqrt32                                     
00021208  isqrt64                                     
00003733  jump_cancel_getMACPIB                       
0000372d  keepAliveTaskNumber                         
0000372e  keepAliveTimeOutTime_ms                     
000036c2  keyPressCount                               
000036c4  keyPressDebounce                            
000036c6  keyReleasedDebounce                         
0000a418  keydebounce                                 
00003540  known_far_msap_list                         
0000779c  labs                                        
0000370c  last_timeout                                
00002dae  link                                        
00007514  llabs                                       
00023cae  loadCurrentHoliday                          
00006484  loadDailyProfile                            
000064ba  loadDailyProfilePassive                     
00021840  loadDailyProfilePassive_dlms                
000218d4  loadDailyProfile_dlms                       
0001ed88  loadEnergyToRam                             
000200ec  loadEventToRam                              
0000349c  local_comm_exchange_mode_flag               
0001da32  logBillingCutoffDateLog                     
000213fc  logEnergy                                   
0002213c  logEvent                                    
00023294  logMeterStatus                              
0001cdd8  logPowerFailEnergy                          
0001d8fe  longToString_c                              
00003782  low_bat_backup_time                         
000035de  lowtariff_temp                              
00003799  lpc                                         
0000372c  mac_pid_failer_count                        
00002ec6  machine_byte                                
00013ba6  main                                        
00006d2a  memcmp                                      
000075e6  memcpy                                      
0000752a  memset                                      
0000363e  messageSent                                 
00003496  meter_connected_phase                       
000030be  meter_status                                
0000378c  mid_entry                                   
00003783  minuteCounts                                
00005a78  mod                                         
0000a26c  month_lengths                               
00002ed6  msg_info                                    
0000270a  neutral_c                                   
000209ca  neutral_current                             
000030c0  neutral_tamper_trip_counter                 
0000373e  next_inactivity_timeout                     
00003746  next_octet_timeout                          
000036cc  numberOfBeepCounter                         
00001800  nv_parms                                    
000078e6  object_list                                 
000048a4  one_second_ticker                           
000030d5  operating_mode                              
000077aa  otherPLCRequestsTimeOut                     
000034a0  over_current_temp                           
000034ac  over_frequency_temp                         
000034b0  over_power_temp                             
000034a8  over_voltage_temp                           
00007386  pack16                                      
000064f0  pack32                                      
0000a37a  partner_HS                                  
0000a382  partner_LS                                  
0000a38a  partner_NS                                  
0000782e  per_day_activity                            
000068d8  per_minute_activity                         
0001d7c6  per_month_activity                          
00014954  per_second_activity                         
0001d53e  performPowerQualityMessurement              
0001c938  perform_low_battry_backup                   
00003731  pib_status                                  
0000363b  plc_comm_status                             
00003730  plc_connection_status                       
00003637  plc_counter                                 
00003732  plc_request_status                          
00003634  plc_state                                   
00003636  plc_status                                  
00002a1a  plc_tx_buff                                 
00003428  power_brakes                                
00021cd2  power_factor                                
000036c0  prc                                         
0000307e  previous_block_number                       
00021968  processKey                                  
00019458  process_aarq                                
00004dfc  process_disc_frame                          
00005cfc  process_dlms_frame                          
000072e6  process_dm_frame                            
000078de  process_frmr_frame                          
0001dee2  process_i_body                              
0001a60a  process_rx_frame                            
0001e886  process_snrm_frame                          
0001f06a  process_ua_frame                            
000078e0  process_ui_frame                            
00003082  program_start_address                       
00005d3c  queue_dequeue                               
00005d7c  queue_enqueue                               
0000716a  queue_isEmpty                               
000050b8  queue_isFull                                
00007556  queue_reinit                                
00003218  queued_tx                                   
00006906  quotient                                    
000030de  rates                                       
000036ce  re                                          
00023d02  reFormatMemoryFormatIndicator               
0001e11e  reactive_power                              
00023e9e  readAllFirwmareBlockStatus                  
0000357a  readBlobAddress                             
00002ff2  readBlobMessage                             
00003578  readBlobStatus                              
00006fc2  readFirwmareBlockStatus                     
0000363c  read_blob_flag                              
00022776  read_eeprom                                 
0001ee7e  read_from_eeprom                            
000034fc  reading_error_counter                       
0001b9e0  receive_firmware_image                      
000090e8  reject_ln_context                           
000090ea  reject_sn_context                           
000036f6  relayState                                  
00007838  remote_disconnect                           
00007842  remote_reconnect                            
000078e2  remove_object                               
00002ee6  reply_c2s                                   
0002100e  reply_to_hls_auth                           
00003028  req                                         
00002f92  required_last_entry_time                    
00003790  res                                         
0000567c  reset_alarms                                
000036f4  reset_counter                               
000036f5  reset_relay_required                        
000036f3  reset_timeout                               
00019784  restoreBackup                               
00002de6  row_data                                    
00008652  rsbox                                       
00002f9c  rtc_backup                                  
00002fa6  rtc_global_temp                             
00003798  rtc_init                                    
0000379a  rtc_init_counter                            
00002fb0  rtc_temp                                    
00002fba  rtc_temp_var                                
00002fc4  rtcc                                        
0000259a  rx                                          
000031a0  sPF_Avg                                     
0000319e  sPF_B                                       
0000319a  sPF_R                                       
0000319c  sPF_Y                                       
000030c2  samples_per_second                          
00008752  sbox                                        
0000a398  scalar_unit_Frequency                       
0000a39e  scalar_unit_I                               
0000a3a4  scalar_unit_KVA                             
0000a3aa  scalar_unit_KW                              
0000a3b0  scalar_unit_PF                              
0000a3b6  scalar_unit_ThresholdVoltageSag_Swell       
0000a3bc  scalar_unit_Time                            
0000a3c2  scalar_unit_Time_Shift_EvtLim               
0000a3c8  scalar_unit_V                               
0000a3ce  scalar_unit_active_power                    
0000a3d4  scalar_unit_dem_colseToContractPower        
0000a3da  scalar_unit_power_current_voltage_calib     
0000a3e0  scalar_unit_reactive_energy                 
0000a3e6  scalar_unit_referance_voltage               
0000a3ec  scalar_unit_total_active_energy_import      
000035b6  scroll_display_time                         
000030d6  sdTemp                                      
000030d7  sdTempData                                  
00002e2a  search_item                                 
000201ac  search_nearest_log                          
00003780  secondCounter                               
000030c4  security_level                              
00002ae4  seggy                                       
0000378a  seggy_len                                   
0001b1c2  send_aare                                   
0001d264  send_action_response                        
000230e8  send_confirmed_service_error                
00022fa0  send_dm                                     
000232fe  send_frame                                  
0002300e  send_frmr                                   
00012ac6  send_get_response                           
0000744a  send_get_response_block                     
00016ea8  send_get_response_block_a                   
00018018  send_get_response_block_b                   
0001a34c  send_set_response                           
0001637c  send_set_response_datablock                 
00022c94  send_ua                                     
00006bbc  setAutoDisplayTime                          
00006be6  setBackToAutoModeTime                       
00007188  setBillingCutOffLogOverlapFlag              
000071a6  setBillingSchema                            
0000681c  setBlob                                     
00006c10  setConsumptionSinceLastBilling              
00005dfc  setCurrentBalance                           
0002026c  setDeviceIDs                                
000071c4  setEnergyLogTime                            
00006d50  setEnergyOverlapFlag                        
000071e2  setEventOverlapFlag                         
00006c3a  setFirmwareVersion                          
00020b3a  setGetActivePassiveCalendarTime             
00007200  setLanguageSelection                        
0000570a  setLastLogAddress                           
00005438  setLogicDeviceName                          
00023700  setMacAddress                               
00022872  setMaxValues                                
0000721e  setMeterConnectedPhase                      
00004e4c  setMinValues                                
00021f0e  setNominalValues                            
0000723c  setOperatingMode                            
00023154  setPassword                                 
00006372  setPowerBreaks                              
000235d6  setRTCCheck                                 
000063aa  setRate                                     
00005e3c  setRelayStatus                              
00006e72  setTamperCount                              
000221c4  setTariffSchaduleTimeslot                   
0002224c  setTariffSchaduleTimeslotPassive            
00006c64  setTempLastEnergyValue                      
0001e98c  setTripDuration                             
000033fa  set_element                                 
000206e0  set_numeric_item                            
000033f8  set_obj                                     
00006694  set_phase_correction                        
00006fe2  set_rtc_sumcheck                            
0000684c  set_sd16_phase_correction                   
0002032c  set_string_item                             
000033e2  setblock_residue_len                        
000060aa  show_all_amharic_indicators                 
00004f86  show_all_english_indicatros                 
00005aba  show_all_non_uint_indicators                
00006efc  show_all_units                              
00018a6a  show_date                                   
0001af7a  show_hourminute                             
0001781a  show_numbers                                
00007352  sqac48_16                                   
0000771a  startSchaduler                              
000036f2  start_connect_timeout                       
00002ef6  status                                      
00003635  statusRecived                               
000077d0  stopSchaduler                               
000078aa  switch_to_manual_mode_c                     
000228ec  switch_to_normal_mode                       
00007462  swtch_to_auto_mode_c                        
00002d2c  system_info                                 
00020910  system_setup                                
000030d8  tamperLoggedStatus                          
0000357c  tamper_InitError                            
0000358a  tamper_Visibility                           
000078e4  tariff_script_execute                       
000035c2  tariffslot                                  
00002c34  tasks                                       
000030d9  temp                                        
00003794  temp_SC_Counter                             
00003734  temp_counter                                
000030da  temp_disp                                   
000036bf  temp_pfm                                    
00002fce  temp_rtc0                                   
00002fd8  temp_rtc1                                   
00003086  template_pointer                            
00005150  testKey                                     
0001ef74  test_current_balance                        
000036be  test_temp22                                 
000036de  time_string                                 
00003708  timer_epoch                                 
00007302  toEthioCalender                             
00002e08  todaysRates                                 
000030db  total_active_energy_pulse_remaining_time    
0000308a  total_active_power                          
0000308e  total_active_power_counter                  
00003092  total_consumed_active_energy                
00003096  total_consumed_reactive_energy              
000030dc  total_reactive_energy_pulse_remaining_time  
0000309a  total_reactive_power                        
0000309e  total_reactive_power_counter                
0000283c  tx                                          
00002ffa  txptr                                       
000034ae  under_frequency_temp                        
000034a4  under_voltage_temp                          
000077dc  unpack16                                    
00006526  unpack32                                    
00005482  updatateFirwmareBlockStatus                 
0000519c  updateBlocksStatus                          
0001f9f6  updateCalibrationFactor                     
0001eb8e  updateNextLogAddress                        
000030a2  v                                           
000058e8  voltage                                     
000030c6  vrms                                        
000036b6  w                                           
000073a0  wait_StatusAsync                            
000078b0  weekday                                     
00003002  writeBlobMessage                            
000060e8  writeDailyProfilePassive_dlms               
000227f4  writeFirmwareBlock                          
0000592c  writeImageIdentifier                        
00006f1e  writeImageSize                              
00006f40  writePreviousImageNumber                    
000225ee  write_mem                                   
00006a94  write_to_eeprom                             


GLOBAL SYMBOLS: SORTED BY Symbol Address 

address   name                                        
-------   ----                                        
0000002e  FLASH_PROGRAMMER_LEN                        
00000039  POWER_HANDLER_LEN                           
0000003f  EEPROM_DRIVER_LEN                           
00000050  __STACK_SIZE                                
00000100  SFRIE1                                      
00000100  SFRIE1_L                                    
00000101  SFRIE1_H                                    
00000102  SFRIFG1                                     
00000102  SFRIFG1_L                                   
00000103  SFRIFG1_H                                   
00000104  SFRRPCR                                     
00000104  SFRRPCR_L                                   
00000105  SFRRPCR_H                                   
00000120  PMMCTL0                                     
00000120  PMMCTL0_L                                   
00000121  PMMCTL0_H                                   
00000122  PMMCTL1                                     
00000122  PMMCTL1_L                                   
00000123  PMMCTL1_H                                   
00000124  SVSMHCTL                                    
00000124  SVSMHCTL_L                                  
00000125  SVSMHCTL_H                                  
00000126  SVSMLCTL                                    
00000126  SVSMLCTL_L                                  
00000127  SVSMLCTL_H                                  
00000128  SVSMIO                                      
00000128  SVSMIO_L                                    
00000129  SVSMIO_H                                    
0000012c  PMMIFG                                      
0000012c  PMMIFG_L                                    
0000012d  PMMIFG_H                                    
0000012e  PMMRIE                                      
0000012e  PMMRIE_L                                    
0000012f  PMMRIE_H                                    
00000130  PM5CTL0                                     
00000130  PM5CTL0_L                                   
00000131  PM5CTL0_H                                   
00000140  FCTL1                                       
00000140  FCTL1_L                                     
00000141  FCTL1_H                                     
00000144  FCTL3                                       
00000144  FCTL3_L                                     
00000145  FCTL3_H                                     
00000146  FCTL4                                       
00000146  FCTL4_L                                     
00000147  FCTL4_H                                     
00000150  CRCDI                                       
00000150  CRCDI_L                                     
00000151  CRCDI_H                                     
00000152  CRCDIRB                                     
00000152  CRCDIRB_L                                   
00000153  CRCDIRB_H                                   
00000154  CRCINIRES                                   
00000154  CRCINIRES_L                                 
00000155  CRCINIRES_H                                 
00000156  CRCRESR                                     
00000156  CRCRESR_L                                   
00000157  CRCRESR_H                                   
00000158  RCCTL0                                      
00000158  RCCTL0_L                                    
00000159  RCCTL0_H                                    
0000015c  WDTCTL                                      
0000015c  WDTCTL_L                                    
0000015d  WDTCTL_H                                    
00000160  UCSCTL0                                     
00000160  UCSCTL0_L                                   
00000161  UCSCTL0_H                                   
00000162  UCSCTL1                                     
00000162  UCSCTL1_L                                   
00000163  UCSCTL1_H                                   
00000164  UCSCTL2                                     
00000164  UCSCTL2_L                                   
00000165  UCSCTL2_H                                   
00000166  UCSCTL3                                     
00000166  UCSCTL3_L                                   
00000167  UCSCTL3_H                                   
00000168  UCSCTL4                                     
00000168  UCSCTL4_L                                   
00000169  UCSCTL4_H                                   
0000016a  UCSCTL5                                     
0000016a  UCSCTL5_L                                   
0000016b  UCSCTL5_H                                   
0000016c  UCSCTL6                                     
0000016c  UCSCTL6_L                                   
0000016d  UCSCTL6_H                                   
0000016e  UCSCTL7                                     
0000016e  UCSCTL7_L                                   
0000016f  UCSCTL7_H                                   
00000170  UCSCTL8                                     
00000170  UCSCTL8_L                                   
00000171  UCSCTL8_H                                   
00000180  SYSCTL                                      
00000180  SYSCTL_L                                    
00000181  SYSCTL_H                                    
00000182  SYSBSLC                                     
00000182  SYSBSLC_L                                   
00000183  SYSBSLC_H                                   
00000186  SYSJMBC                                     
00000186  SYSJMBC_L                                   
00000187  SYSJMBC_H                                   
00000188  SYSJMBI0                                    
00000188  SYSJMBI0_L                                  
00000189  SYSJMBI0_H                                  
0000018a  SYSJMBI1                                    
0000018a  SYSJMBI1_L                                  
0000018b  SYSJMBI1_H                                  
0000018c  SYSJMBO0                                    
0000018c  SYSJMBO0_L                                  
0000018d  SYSJMBO0_H                                  
0000018e  SYSJMBO1                                    
0000018e  SYSJMBO1_L                                  
0000018f  SYSJMBO1_H                                  
00000198  SYSBERRIV                                   
00000198  SYSBERRIV_L                                 
00000199  SYSBERRIV_H                                 
0000019a  SYSUNIV                                     
0000019a  SYSUNIV_L                                   
0000019b  SYSUNIV_H                                   
0000019c  SYSSNIV                                     
0000019c  SYSSNIV_L                                   
0000019d  SYSSNIV_H                                   
0000019e  SYSRSTIV                                    
0000019e  SYSRSTIV_L                                  
0000019f  SYSRSTIV_H                                  
000001b0  REFCTL0                                     
000001b0  REFCTL0_L                                   
000001b1  REFCTL0_H                                   
000001c0  PMAPKEYID                                   
000001c0  PMAPKEYID_L                                 
000001c1  PMAPKEYID_H                                 
000001c2  PMAPCTL                                     
000001c2  PMAPCTL_L                                   
000001c3  PMAPCTL_H                                   
000001c8  P1MAP01                                     
000001c8  P1MAP01_L                                   
000001c9  P1MAP01_H                                   
000001ca  P1MAP23                                     
000001ca  P1MAP23_L                                   
000001cb  P1MAP23_H                                   
000001cc  P1MAP45                                     
000001cc  P1MAP45_L                                   
000001cd  P1MAP45_H                                   
000001ce  P1MAP67                                     
000001ce  P1MAP67_L                                   
000001cf  P1MAP67_H                                   
000001d0  P2MAP01                                     
000001d0  P2MAP01_L                                   
000001d1  P2MAP01_H                                   
000001d2  P2MAP23                                     
000001d2  P2MAP23_L                                   
000001d3  P2MAP23_H                                   
000001d4  P2MAP45                                     
000001d4  P2MAP45_L                                   
000001d5  P2MAP45_H                                   
000001d6  P2MAP67                                     
000001d6  P2MAP67_L                                   
000001d7  P2MAP67_H                                   
000001d8  P3MAP01                                     
000001d8  P3MAP01_L                                   
000001d9  P3MAP01_H                                   
000001da  P3MAP23                                     
000001da  P3MAP23_L                                   
000001db  P3MAP23_H                                   
000001dc  P3MAP45                                     
000001dc  P3MAP45_L                                   
000001dd  P3MAP45_H                                   
000001de  P3MAP67                                     
000001de  P3MAP67_L                                   
000001df  P3MAP67_H                                   
00000200  PAIN                                        
00000200  PAIN_L                                      
00000201  PAIN_H                                      
00000202  PAOUT                                       
00000202  PAOUT_L                                     
00000203  PAOUT_H                                     
00000204  PADIR                                       
00000204  PADIR_L                                     
00000205  PADIR_H                                     
00000206  PAREN                                       
00000206  PAREN_L                                     
00000207  PAREN_H                                     
00000208  PADS                                        
00000208  PADS_L                                      
00000209  PADS_H                                      
0000020a  PASEL                                       
0000020a  PASEL_L                                     
0000020b  PASEL_H                                     
0000020e  P1IV                                        
00000218  PAIES                                       
00000218  PAIES_L                                     
00000219  PAIES_H                                     
0000021a  PAIE                                        
0000021a  PAIE_L                                      
0000021b  PAIE_H                                      
0000021c  PAIFG                                       
0000021c  PAIFG_L                                     
0000021d  PAIFG_H                                     
0000021e  P2IV                                        
00000220  PBIN                                        
00000220  PBIN_L                                      
00000221  PBIN_H                                      
00000222  PBOUT                                       
00000222  PBOUT_L                                     
00000223  PBOUT_H                                     
00000224  PBDIR                                       
00000224  PBDIR_L                                     
00000225  PBDIR_H                                     
00000226  PBREN                                       
00000226  PBREN_L                                     
00000227  PBREN_H                                     
00000228  PBDS                                        
00000228  PBDS_L                                      
00000229  PBDS_H                                      
0000022a  PBSEL                                       
0000022a  PBSEL_L                                     
0000022b  PBSEL_H                                     
00000240  PCIN                                        
00000240  PCIN_L                                      
00000241  PCIN_H                                      
00000242  PCOUT                                       
00000242  PCOUT_L                                     
00000243  PCOUT_H                                     
00000244  PCDIR                                       
00000244  PCDIR_L                                     
00000245  PCDIR_H                                     
00000246  PCREN                                       
00000246  PCREN_L                                     
00000247  PCREN_H                                     
00000248  PCDS                                        
00000248  PCDS_L                                      
00000249  PCDS_H                                      
0000024a  PCSEL                                       
0000024a  PCSEL_L                                     
0000024b  PCSEL_H                                     
00000260  PDIN                                        
00000260  PDIN_L                                      
00000261  PDIN_H                                      
00000262  PDOUT                                       
00000262  PDOUT_L                                     
00000263  PDOUT_H                                     
00000264  PDDIR                                       
00000264  PDDIR_L                                     
00000265  PDDIR_H                                     
00000266  PDREN                                       
00000266  PDREN_L                                     
00000267  PDREN_H                                     
00000268  PDDS                                        
00000268  PDDS_L                                      
00000269  PDDS_H                                      
0000026a  PDSEL                                       
0000026a  PDSEL_L                                     
0000026b  PDSEL_H                                     
00000280  PEIN                                        
00000280  PEIN_L                                      
00000281  PEIN_H                                      
00000282  PEOUT                                       
00000282  PEOUT_L                                     
00000283  PEOUT_H                                     
00000284  PEDIR                                       
00000284  PEDIR_L                                     
00000285  PEDIR_H                                     
00000286  PEREN                                       
00000286  PEREN_L                                     
00000287  PEREN_H                                     
00000288  PEDS                                        
00000288  PEDS_L                                      
00000289  PEDS_H                                      
0000028a  PESEL                                       
0000028a  PESEL_L                                     
0000028b  PESEL_H                                     
00000320  PJIN                                        
00000320  PJIN_L                                      
00000321  PJIN_H                                      
00000322  PJOUT                                       
00000322  PJOUT_L                                     
00000323  PJOUT_H                                     
00000324  PJDIR                                       
00000324  PJDIR_L                                     
00000325  PJDIR_H                                     
00000326  PJREN                                       
00000326  PJREN_L                                     
00000327  PJREN_H                                     
00000328  PJDS                                        
00000328  PJDS_L                                      
00000329  PJDS_H                                      
0000032a  PJSEL                                       
0000032a  PJSEL_L                                     
0000032b  PJSEL_H                                     
00000340  TA0CTL                                      
00000342  TA0CCTL0                                    
00000344  TA0CCTL1                                    
00000346  TA0CCTL2                                    
00000350  TA0R                                        
00000352  TA0CCR0                                     
00000354  TA0CCR1                                     
00000356  TA0CCR2                                     
00000360  TA0EX0                                      
0000036e  TA0IV                                       
00000380  TA1CTL                                      
00000382  TA1CCTL0                                    
00000384  TA1CCTL1                                    
00000390  TA1R                                        
00000392  TA1CCR0                                     
00000394  TA1CCR1                                     
000003a0  TA1EX0                                      
000003ae  TA1IV                                       
00000400  TA2CTL                                      
00000402  TA2CCTL0                                    
00000404  TA2CCTL1                                    
00000410  TA2R                                        
00000412  TA2CCR0                                     
00000414  TA2CCR1                                     
00000420  TA2EX0                                      
0000042e  TA2IV                                       
00000440  TA3CTL                                      
00000442  TA3CCTL0                                    
00000444  TA3CCTL1                                    
00000450  TA3R                                        
00000452  TA3CCR0                                     
00000454  TA3CCR1                                     
00000460  TA3EX0                                      
0000046e  TA3IV                                       
00000480  BAKMEM0                                     
00000480  BAKMEM0_L                                   
00000481  BAKMEM0_H                                   
00000482  BAKMEM1                                     
00000482  BAKMEM1_L                                   
00000483  BAKMEM1_H                                   
00000484  BAKMEM2                                     
00000484  BAKMEM2_L                                   
00000485  BAKMEM2_H                                   
00000486  BAKMEM3                                     
00000486  BAKMEM3_L                                   
00000487  BAKMEM3_H                                   
000004a0  RTCCTL0                                     
000004a0  RTCCTL0_L                                   
000004a1  RTCCTL0_H                                   
000004a2  RTCCTL13                                    
000004a2  RTCCTL13_L                                  
000004a3  RTCCTL13_H                                  
000004a4  RTCOCAL                                     
000004a4  RTCOCAL_L                                   
000004a5  RTCOCAL_H                                   
000004a6  RTCTCMP                                     
000004a6  RTCTCMP_L                                   
000004a7  RTCTCMP_H                                   
000004a8  RTCPS0CTL                                   
000004a8  RTCPS0CTL_L                                 
000004a9  RTCPS0CTL_H                                 
000004aa  RTCPS1CTL                                   
000004aa  RTCPS1CTL_L                                 
000004ab  RTCPS1CTL_H                                 
000004ac  RTCPS                                       
000004ac  RTCPS_L                                     
000004ad  RTCPS_H                                     
000004ae  RTCIV                                       
000004b0  RTCTIM0                                     
000004b0  RTCTIM0_L                                   
000004b1  RTCTIM0_H                                   
000004b2  RTCTIM1                                     
000004b2  RTCTIM1_L                                   
000004b3  RTCTIM1_H                                   
000004b4  RTCDATE                                     
000004b4  RTCDATE_L                                   
000004b5  RTCDATE_H                                   
000004b6  RTCYEAR                                     
000004b6  RTCYEAR_L                                   
000004b7  RTCYEAR_H                                   
000004b8  RTCAMINHR                                   
000004b8  RTCAMINHR_L                                 
000004b9  RTCAMINHR_H                                 
000004ba  RTCADOWDAY                                  
000004ba  RTCADOWDAY_L                                
000004bb  RTCADOWDAY_H                                
000004bc  BIN2BCD                                     
000004be  BCD2BIN                                     
000004c0  MPY                                         
000004c0  MPY_L                                       
000004c1  MPY_H                                       
000004c2  MPYS                                        
000004c2  MPYS_L                                      
000004c3  MPYS_H                                      
000004c4  MAC                                         
000004c4  MAC_L                                       
000004c5  MAC_H                                       
000004c6  MACS                                        
000004c6  MACS_L                                      
000004c7  MACS_H                                      
000004c8  OP2                                         
000004c8  OP2_L                                       
000004c9  OP2_H                                       
000004ca  RESLO                                       
000004ca  RESLO_L                                     
000004cb  RESLO_H                                     
000004cc  RESHI                                       
000004cc  RESHI_L                                     
000004cd  RESHI_H                                     
000004ce  SUMEXT                                      
000004ce  SUMEXT_L                                    
000004cf  SUMEXT_H                                    
000004d0  MPY32L                                      
000004d0  MPY32L_L                                    
000004d1  MPY32L_H                                    
000004d2  MPY32H                                      
000004d2  MPY32H_L                                    
000004d3  MPY32H_H                                    
000004d4  MPYS32L                                     
000004d4  MPYS32L_L                                   
000004d5  MPYS32L_H                                   
000004d6  MPYS32H                                     
000004d6  MPYS32H_L                                   
000004d7  MPYS32H_H                                   
000004d8  MAC32L                                      
000004d8  MAC32L_L                                    
000004d9  MAC32L_H                                    
000004da  MAC32H                                      
000004da  MAC32H_L                                    
000004db  MAC32H_H                                    
000004dc  MACS32L                                     
000004dc  MACS32L_L                                   
000004dd  MACS32L_H                                   
000004de  MACS32H                                     
000004de  MACS32H_L                                   
000004df  MACS32H_H                                   
000004e0  OP2L                                        
000004e0  OP2L_L                                      
000004e1  OP2L_H                                      
000004e2  OP2H                                        
000004e2  OP2H_L                                      
000004e3  OP2H_H                                      
000004e4  RES0                                        
000004e4  RES0_L                                      
000004e5  RES0_H                                      
000004e6  RES1                                        
000004e6  RES1_L                                      
000004e7  RES1_H                                      
000004e8  RES2                                        
000004e8  RES2_L                                      
000004e9  RES2_H                                      
000004ea  RES3                                        
000004ea  RES3_L                                      
000004eb  RES3_H                                      
000004ec  MPY32CTL0                                   
000004ec  MPY32CTL0_L                                 
000004ed  MPY32CTL0_H                                 
00000500  DMACTL0                                     
00000500  DMACTL0_L                                   
00000501  DMACTL0_H                                   
00000502  DMACTL1                                     
00000502  DMACTL1_L                                   
00000503  DMACTL1_H                                   
00000504  DMACTL2                                     
00000504  DMACTL2_L                                   
00000505  DMACTL2_H                                   
00000506  DMACTL3                                     
00000506  DMACTL3_L                                   
00000507  DMACTL3_H                                   
00000508  DMACTL4                                     
00000508  DMACTL4_L                                   
00000509  DMACTL4_H                                   
0000050e  DMAIV                                       
0000050e  DMAIV_L                                     
0000050f  DMAIV_H                                     
00000510  DMA0CTL                                     
00000510  DMA0CTL_L                                   
00000511  DMA0CTL_H                                   
00000512  DMA0SA                                      
00000512  DMA0SAL                                     
00000514  DMA0SAH                                     
00000516  DMA0DA                                      
00000516  DMA0DAL                                     
00000518  DMA0DAH                                     
0000051a  DMA0SZ                                      
00000520  DMA1CTL                                     
00000520  DMA1CTL_L                                   
00000521  DMA1CTL_H                                   
00000522  DMA1SA                                      
00000522  DMA1SAL                                     
00000524  DMA1SAH                                     
00000526  DMA1DA                                      
00000526  DMA1DAL                                     
00000528  DMA1DAH                                     
0000052a  DMA1SZ                                      
00000530  DMA2CTL                                     
00000530  DMA2CTL_L                                   
00000531  DMA2CTL_H                                   
00000532  DMA2SA                                      
00000532  DMA2SAL                                     
00000534  DMA2SAH                                     
00000536  DMA2DA                                      
00000536  DMA2DAL                                     
00000538  DMA2DAH                                     
0000053a  DMA2SZ                                      
000005c0  UCA0CTLW0                                   
000005c0  UCA0CTLW0_L                                 
000005c1  UCA0CTLW0_H                                 
000005c2  UCA0CTLW1                                   
000005c2  UCA0CTLW1_L                                 
000005c3  UCA0CTLW1_H                                 
000005c6  UCA0BRW                                     
000005c6  UCA0BRW_L                                   
000005c7  UCA0BRW_H                                   
000005c8  UCA0MCTLW                                   
000005c8  UCA0MCTLW_L                                 
000005c9  UCA0MCTLW_H                                 
000005ca  UCA0STATW                                   
000005cc  UCA0RXBUF                                   
000005cc  UCA0RXBUF_L                                 
000005cd  UCA0RXBUF_H                                 
000005ce  UCA0TXBUF                                   
000005ce  UCA0TXBUF_L                                 
000005cf  UCA0TXBUF_H                                 
000005d0  UCA0ABCTL                                   
000005d2  UCA0IRCTL                                   
000005d2  UCA0IRCTL_L                                 
000005d3  UCA0IRCTL_H                                 
000005da  UCA0IE                                      
000005da  UCA0IE_L                                    
000005db  UCA0IE_H                                    
000005dc  UCA0IFG                                     
000005dc  UCA0IFG_L                                   
000005dd  UCA0IFG_H                                   
000005de  UCA0IV                                      
000005e0  UCA1CTLW0                                   
000005e0  UCA1CTLW0_L                                 
000005e1  UCA1CTLW0_H                                 
000005e2  UCA1CTLW1                                   
000005e2  UCA1CTLW1_L                                 
000005e3  UCA1CTLW1_H                                 
000005e6  UCA1BRW                                     
000005e6  UCA1BRW_L                                   
000005e7  UCA1BRW_H                                   
000005e8  UCA1MCTLW                                   
000005e8  UCA1MCTLW_L                                 
000005e9  UCA1MCTLW_H                                 
000005ea  UCA1STATW                                   
000005ec  UCA1RXBUF                                   
000005ec  UCA1RXBUF_L                                 
000005ed  UCA1RXBUF_H                                 
000005ee  UCA1TXBUF                                   
000005ee  UCA1TXBUF_L                                 
000005ef  UCA1TXBUF_H                                 
000005f0  UCA1ABCTL                                   
000005f2  UCA1IRCTL                                   
000005f2  UCA1IRCTL_L                                 
000005f3  UCA1IRCTL_H                                 
000005fa  UCA1IE                                      
000005fa  UCA1IE_L                                    
000005fb  UCA1IE_H                                    
000005fc  UCA1IFG                                     
000005fc  UCA1IFG_L                                   
000005fd  UCA1IFG_H                                   
000005fe  UCA1IV                                      
00000600  UCA2CTLW0                                   
00000600  UCA2CTLW0_L                                 
00000601  UCA2CTLW0_H                                 
00000602  UCA2CTLW1                                   
00000602  UCA2CTLW1_L                                 
00000603  UCA2CTLW1_H                                 
00000606  UCA2BRW                                     
00000606  UCA2BRW_L                                   
00000607  UCA2BRW_H                                   
00000608  UCA2MCTLW                                   
00000608  UCA2MCTLW_L                                 
00000609  UCA2MCTLW_H                                 
0000060a  UCA2STATW                                   
0000060c  UCA2RXBUF                                   
0000060c  UCA2RXBUF_L                                 
0000060d  UCA2RXBUF_H                                 
0000060e  UCA2TXBUF                                   
0000060e  UCA2TXBUF_L                                 
0000060f  UCA2TXBUF_H                                 
00000610  UCA2ABCTL                                   
00000612  UCA2IRCTL                                   
00000612  UCA2IRCTL_L                                 
00000613  UCA2IRCTL_H                                 
0000061a  UCA2IE                                      
0000061a  UCA2IE_L                                    
0000061b  UCA2IE_H                                    
0000061c  UCA2IFG                                     
0000061c  UCA2IFG_L                                   
0000061d  UCA2IFG_H                                   
0000061e  UCA2IV                                      
00000640  UCB0CTLW0                                   
00000640  UCB0CTLW0_L                                 
00000641  UCB0CTLW0_H                                 
00000642  UCB0CTLW1                                   
00000642  UCB0CTLW1_L                                 
00000643  UCB0CTLW1_H                                 
00000646  UCB0BRW                                     
00000646  UCB0BRW_L                                   
00000647  UCB0BRW_H                                   
00000648  UCB0STATW                                   
00000648  UCB0STATW_L                                 
00000649  UCB0STATW_H                                 
0000064a  UCB0TBCNT                                   
0000064a  UCB0TBCNT_L                                 
0000064b  UCB0TBCNT_H                                 
0000064c  UCB0RXBUF                                   
0000064c  UCB0RXBUF_L                                 
0000064d  UCB0RXBUF_H                                 
0000064e  UCB0TXBUF                                   
0000064e  UCB0TXBUF_L                                 
0000064f  UCB0TXBUF_H                                 
00000654  UCB0I2COA0                                  
00000654  UCB0I2COA0_L                                
00000655  UCB0I2COA0_H                                
00000656  UCB0I2COA1                                  
00000656  UCB0I2COA1_L                                
00000657  UCB0I2COA1_H                                
00000658  UCB0I2COA2                                  
00000658  UCB0I2COA2_L                                
00000659  UCB0I2COA2_H                                
0000065a  UCB0I2COA3                                  
0000065a  UCB0I2COA3_L                                
0000065b  UCB0I2COA3_H                                
0000065c  UCB0ADDRX                                   
0000065c  UCB0ADDRX_L                                 
0000065d  UCB0ADDRX_H                                 
0000065e  UCB0ADDMASK                                 
0000065e  UCB0ADDMASK_L                               
0000065f  UCB0ADDMASK_H                               
00000660  UCB0I2CSA                                   
00000660  UCB0I2CSA_L                                 
00000661  UCB0I2CSA_H                                 
0000066a  UCB0IE                                      
0000066a  UCB0IE_L                                    
0000066b  UCB0IE_H                                    
0000066c  UCB0IFG                                     
0000066c  UCB0IFG_L                                   
0000066d  UCB0IFG_H                                   
0000066e  UCB0IV                                      
00000740  ADC10CTL0                                   
00000740  ADC10CTL0_L                                 
00000741  ADC10CTL0_H                                 
00000742  ADC10CTL1                                   
00000742  ADC10CTL1_L                                 
00000743  ADC10CTL1_H                                 
00000744  ADC10CTL2                                   
00000744  ADC10CTL2_L                                 
00000745  ADC10CTL2_H                                 
00000746  ADC10LO                                     
00000746  ADC10LO_L                                   
00000747  ADC10LO_H                                   
00000748  ADC10HI                                     
00000748  ADC10HI_L                                   
00000749  ADC10HI_H                                   
0000074a  ADC10MCTL0                                  
0000074a  ADC10MCTL0_L                                
0000074b  ADC10MCTL0_H                                
00000752  ADC10MEM0                                   
00000752  ADC10MEM0_L                                 
00000753  ADC10MEM0_H                                 
0000075a  ADC10IE                                     
0000075a  ADC10IE_L                                   
0000075b  ADC10IE_H                                   
0000075c  ADC10IFG                                    
0000075c  ADC10IFG_L                                  
0000075d  ADC10IFG_H                                  
0000075e  ADC10IV                                     
0000075e  ADC10IV_L                                   
0000075f  ADC10IV_H                                   
00000800  SD24BCTL0                                   
00000800  SD24BCTL0_L                                 
00000801  SD24BCTL0_H                                 
00000802  SD24BCTL1                                   
00000802  SD24BCTL1_L                                 
00000803  SD24BCTL1_H                                 
0000080a  SD24BIFG                                    
0000080a  SD24BIFG_L                                  
0000080b  SD24BIFG_H                                  
0000080c  SD24BIE                                     
0000080c  SD24BIE_L                                   
0000080d  SD24BIE_H                                   
0000080e  SD24BIV                                     
0000080e  SD24BIV_L                                   
0000080f  SD24BIV_H                                   
00000810  SD24BCCTL0                                  
00000810  SD24BCCTL0_L                                
00000811  SD24BCCTL0_H                                
00000812  SD24BINCTL0                                 
00000812  SD24BINCTL0_L                               
00000813  SD24BINCTL0_H                               
00000814  SD24BOSR0                                   
00000814  SD24BOSR0_L                                 
00000815  SD24BOSR0_H                                 
00000816  SD24BPRE0                                   
00000816  SD24BPRE0_L                                 
00000817  SD24BPRE0_H                                 
00000818  SD24BCCTL1                                  
00000818  SD24BCCTL1_L                                
00000819  SD24BCCTL1_H                                
0000081a  SD24BINCTL1                                 
0000081a  SD24BINCTL1_L                               
0000081b  SD24BINCTL1_H                               
0000081c  SD24BOSR1                                   
0000081c  SD24BOSR1_L                                 
0000081d  SD24BOSR1_H                                 
0000081e  SD24BPRE1                                   
0000081e  SD24BPRE1_L                                 
0000081f  SD24BPRE1_H                                 
00000820  SD24BCCTL2                                  
00000820  SD24BCCTL2_L                                
00000821  SD24BCCTL2_H                                
00000822  SD24BINCTL2                                 
00000822  SD24BINCTL2_L                               
00000823  SD24BINCTL2_H                               
00000824  SD24BOSR2                                   
00000824  SD24BOSR2_L                                 
00000825  SD24BOSR2_H                                 
00000826  SD24BPRE2                                   
00000826  SD24BPRE2_L                                 
00000827  SD24BPRE2_H                                 
00000850  SD24BMEML0                                  
00000850  SD24BMEML0_L                                
00000851  SD24BMEML0_H                                
00000852  SD24BMEMH0                                  
00000852  SD24BMEMH0_L                                
00000853  SD24BMEMH0_H                                
00000854  SD24BMEML1                                  
00000854  SD24BMEML1_L                                
00000855  SD24BMEML1_H                                
00000856  SD24BMEMH1                                  
00000856  SD24BMEMH1_L                                
00000857  SD24BMEMH1_H                                
00000858  SD24BMEML2                                  
00000858  SD24BMEML2_L                                
00000859  SD24BMEML2_H                                
0000085a  SD24BMEMH2                                  
0000085a  SD24BMEMH2_L                                
0000085b  SD24BMEMH2_H                                
000009e0  AUXCTL0                                     
000009e0  AUXCTL0_L                                   
000009e1  AUXCTL0_H                                   
000009e2  AUXCTL1                                     
000009e2  AUXCTL1_L                                   
000009e3  AUXCTL1_H                                   
000009e4  AUXCTL2                                     
000009e4  AUXCTL2_L                                   
000009e5  AUXCTL2_H                                   
000009f2  AUX2CHCTL                                   
000009f2  AUX2CHCTL_L                                 
000009f3  AUX2CHCTL_H                                 
000009f4  AUX3CHCTL                                   
000009f4  AUX3CHCTL_L                                 
000009f5  AUX3CHCTL_H                                 
000009f6  AUXADCCTL                                   
000009f6  AUXADCCTL_L                                 
000009f7  AUXADCCTL_H                                 
000009fa  AUXIFG                                      
000009fa  AUXIFG_L                                    
000009fb  AUXIFG_H                                    
000009fc  AUXIE                                       
000009fc  AUXIE_L                                     
000009fd  AUXIE_H                                     
000009fe  AUXIV                                       
000009fe  AUXIV_L                                     
000009ff  AUXIV_H                                     
00000a00  LCDCCTL0                                    
00000a00  LCDCCTL0_L                                  
00000a01  LCDCCTL0_H                                  
00000a02  LCDCCTL1                                    
00000a02  LCDCCTL1_L                                  
00000a03  LCDCCTL1_H                                  
00000a04  LCDCBLKCTL                                  
00000a04  LCDCBLKCTL_L                                
00000a05  LCDCBLKCTL_H                                
00000a06  LCDCMEMCTL                                  
00000a06  LCDCMEMCTL_L                                
00000a07  LCDCMEMCTL_H                                
00000a08  LCDCVCTL                                    
00000a08  LCDCVCTL_L                                  
00000a09  LCDCVCTL_H                                  
00000a0a  LCDCPCTL0                                   
00000a0a  LCDCPCTL0_L                                 
00000a0b  LCDCPCTL0_H                                 
00000a0c  LCDCPCTL1                                   
00000a0c  LCDCPCTL1_L                                 
00000a0d  LCDCPCTL1_H                                 
00000a0e  LCDCPCTL2                                   
00000a0e  LCDCPCTL2_L                                 
00000a0f  LCDCPCTL2_H                                 
00000a12  LCDCCPCTL                                   
00000a12  LCDCCPCTL_L                                 
00000a13  LCDCCPCTL_H                                 
00000a1e  LCDCIV                                      
00000a20  LCDM1                                       
00000a21  LCDM2                                       
00000a22  LCDM3                                       
00000a23  LCDM4                                       
00000a24  LCDM5                                       
00000a25  LCDM6                                       
00000a26  LCDM7                                       
00000a27  LCDM8                                       
00000a28  LCDM9                                       
00000a29  LCDM10                                      
00000a2a  LCDM11                                      
00000a2b  LCDM12                                      
00000a2c  LCDM13                                      
00000a2d  LCDM14                                      
00000a2e  LCDM15                                      
00000a2f  LCDM16                                      
00000a30  LCDM17                                      
00000a31  LCDM18                                      
00000a32  LCDM19                                      
00000a33  LCDM20                                      
00000a34  LCDM21                                      
00000a35  LCDM22                                      
00000a36  LCDM23                                      
00000a37  LCDM24                                      
00000a38  LCDM25                                      
00000a39  LCDM26                                      
00000a3a  LCDM27                                      
00000a3b  LCDM28                                      
00000a3c  LCDM29                                      
00000a3d  LCDM30                                      
00000a3e  LCDM31                                      
00000a3f  LCDM32                                      
00000a40  LCDBM1                                      
00000a40  LCDM33                                      
00000a41  LCDBM2                                      
00000a41  LCDM34                                      
00000a42  LCDBM3                                      
00000a42  LCDM35                                      
00000a43  LCDBM4                                      
00000a43  LCDM36                                      
00000a44  LCDBM5                                      
00000a44  LCDM37                                      
00000a45  LCDBM6                                      
00000a45  LCDM38                                      
00000a46  LCDBM7                                      
00000a46  LCDM39                                      
00000a47  LCDBM8                                      
00000a47  LCDM40                                      
00000a48  LCDBM9                                      
00000a49  LCDBM10                                     
00000a4a  LCDBM11                                     
00000a4b  LCDBM12                                     
00000a4c  LCDBM13                                     
00000a4d  LCDBM14                                     
00000a4e  LCDBM15                                     
00000a4f  LCDBM16                                     
00000a50  LCDBM17                                     
00000a51  LCDBM18                                     
00000a52  LCDBM19                                     
00000a53  LCDBM20                                     
00001800  nv_parms                                    
00001900  backup                                      
00001c00  RX_BUF                                      
000023d0  chan1                                       
0000259a  rx                                          
0000270a  neutral_c                                   
0000283c  tx                                          
00002950  IEC_Tx_Queue                                
00002a1a  plc_tx_buff                                 
00002ae4  seggy                                       
00002ba4  holidays                                    
00002c34  tasks                                       
00002cb4  DataPayload                                 
00002d2c  system_info                                 
00002d6e  block_data                                  
00002dae  link                                        
00002de6  row_data                                    
00002e08  todaysRates                                 
00002e2a  search_item                                 
00002e46  LastTxEnergyCopy                            
00002e5e  ConnectRequestAlarm                         
00002e72  DisconnectRequestAlarm                      
00002e86  SA_Range                                    
00002e96  challenge_c2s                               
00002ea6  executable_Task_Index                       
00002eb6  image_ident                                 
00002ec6  machine_byte                                
00002ed6  msg_info                                    
00002ee6  reply_c2s                                   
00002ef6  status                                      
00002f04  RecivedMessage                              
00002f10  confirm                                     
00002f1c  currentEnergyLogEntryData                   
00002f28  currentEventLogEntryData                    
00002f34  disconnect_script                           
00002f40  ind                                         
00002f4c  Current_billing_Period_start                
00002f56  ErrorList                                   
00002f60  Estimated_billing_period_end                
00002f6a  MAC_PIB_replay                              
00002f74  PHY_PIB_replay                              
00002f7e  activePassiveCalenderTime                   
00002f88  conf                                        
00002f92  required_last_entry_time                    
00002f9c  rtc_backup                                  
00002fa6  rtc_global_temp                             
00002fb0  rtc_temp                                    
00002fba  rtc_temp_var                                
00002fc4  rtcc                                        
00002fce  temp_rtc0                                   
00002fd8  temp_rtc1                                   
00002fea  AlarmIndiation                              
00002ff2  readBlobMessage                             
00002ffa  txptr                                       
00003002  writeBlobMessage                            
0000300a  Balance_PostPaid                            
00003010  Current_balance                             
00003016  TamperCount                                 
0000301c  currentHoliday_date                         
00003022  hardware_status                             
00003028  req                                         
0000303a  CurrentPage                                 
0000303e  CurrentReadAddress                          
00003042  CurrentReadPage                             
00003046  CurrentWriteAddress                         
0000304a  P_Active_Negative                           
0000304e  P_Active_Plus                               
00003052  P_Reactive_negative                         
00003056  P_Reactive_positive                         
0000305a  TempLastEnergyValue                         
0000305e  dayProfileTime1                             
00003062  dayProfileTime2                             
00003066  dayProfileTime3                             
0000306a  dayProfileTime4                             
0000306e  de_confirm                                  
00003072  desconnect_val                              
00003076  header_array                                
0000307a  iec_tx_buff                                 
0000307e  previous_block_number                       
00003082  program_start_address                       
00003086  template_pointer                            
0000308a  total_active_power                          
0000308e  total_active_power_counter                  
00003092  total_consumed_active_energy                
00003096  total_consumed_reactive_energy              
0000309a  total_reactive_power                        
0000309e  total_reactive_power_counter                
000030a2  v                                           
000030a8  CalcHeaderCRC                               
000030aa  CurrentSlaveAddress                         
000030ac  Frame_Received                              
000030ae  HeaderCRC                                   
000030b0  MessageStatus                               
000030b2  PayloadCRC                                  
000030b4  adc_interrupts                              
000030b6  btemp                                       
000030b8  challenge_c2s_len                           
000030ba  current_get_block_chunk_len_temp            
000030bc  download_finished                           
000030be  meter_status                                
000030c0  neutral_tamper_trip_counter                 
000030c2  samples_per_second                          
000030c4  security_level                              
000030c6  vrms                                        
000030c8  ActivePowerTimer                            
000030c9  LastDisconnectReason                        
000030ca  LongPowerFailTimer                          
000030cb  OverCurrentTimer                            
000030cc  OverFrequencyTimer                          
000030cd  OverVoltageTimer                            
000030ce  UnderFrequencyTimer                         
000030cf  UnderVoltageTimer                           
000030d0  access_selector                             
000030d1  ch                                          
000030d2  current_reversed                            
000030d3  image_transfer_status                       
000030d4  image_transferred_blocks_status             
000030d5  operating_mode                              
000030d6  sdTemp                                      
000030d7  sdTempData                                  
000030d8  tamperLoggedStatus                          
000030d9  temp                                        
000030da  temp_disp                                   
000030db  total_active_energy_pulse_remaining_time    
000030dc  total_reactive_energy_pulse_remaining_time  
000030de  rates                                       
0000317e  Demand_Integration_Period                   
00003182  OperatingMode                               
00003183  TimeShiftEvtLimVal                          
00003184  TimeShiftEvtInvalidLimVal                   
00003186  Vrms_R                                      
00003188  Vrms_Y                                      
0000318a  Vrms_B                                      
0000318c  Irms_R                                      
00003190  Irms_Y                                      
00003194  Irms_B                                      
00003198  Mains_Freq                                  
0000319a  sPF_R                                       
0000319c  sPF_Y                                       
0000319e  sPF_B                                       
000031a0  sPF_Avg                                     
000031a2  P_Active                                    
000031a6  P_Reactive                                  
000031aa  P_Apparent                                  
000031ae  Cum_Power_Off_Count                         
000031b2  Cum_Tamper_Count                            
000031b6  Cum_MD_Reset_Count                          
000031ba  Cum_Prog_Count                              
000031be  Temp_Uint32                                 
000031c2  Total_Active_Energy_Import                  
000031c6  Total_Active_Energy_Export                  
000031ca  Reactive_Energy_QI                          
000031ce  Reactive_Energy_QII                         
000031d2  Reactive_Energy_QIII                        
000031d6  Reactive_Energy_QIV                         
000031da  Load_Profile_Entries_In_Use                 
000031de  Load_Profile_Entries                        
000031e2  Load_Profile_Capture_Period                 
000031e6  Load_Profile_Sort_Method                    
000031e8  Instantaneous_Energy_Entries_In_Use         
000031ec  Instantaneous_Energy_Entries                
000031f0  Instantaneous_Energy_Capture_Period         
000031f4  Instantaneous_Energy_Sort_Method            
000031f6  Instantaneous_Values_Entries_In_Use         
000031fa  Instantaneous_Values_Entries                
000031fe  Instantaneous_Values_Capture_Period         
00003202  Instantaneous_Values_Sort_Method            
00003204  image_first_not_transferred_block_number    
00003208  image_transfer_enabled                      
0000320a  image_block_size                            
0000320e  image_ident_size                            
00003210  image_size                                  
00003214  current_block_number                        
00003218  queued_tx                                   
000032ee  Passwords                                   
00003336  MAX_IRMS                                    
00003338  MAX_VRMS                                    
0000333a  MAX_Frequency                               
0000333c  MAXActivePowerTripPoint                     
00003340  MAXActivePowerExportTripPoint               
00003344  ThrusholdVoltageSagPer                      
00003346  ThrusholdVoltageSwellPer                    
00003348  VoltageThresholdLongPowerFailePer           
0000334a  MIN_VRMS                                    
0000334b  MIN_Frequency                               
0000334c  ThresholdLongPowerFaile                     
0000334e  TimeThresholdLongPowerFaile                 
00003350  Nominal_Voltage                             
00003352  Basic_Current                               
00003353  Nominal_Frequency                           
00003354  Nominal_ActivePower                         
00003356  ActivePowerTripDuration                     
00003358  OverCurrentTripDuration                     
0000335a  OverVoltageTripDuration                     
0000335c  OverFrequencyTripDuration                   
0000335e  UnderVoltageTripDuration                    
00003360  UnderFrequencyTripDuration                  
00003362  CoverRemovalTripDuration                    
00003364  NeutralTamperTripDuration                   
00003366  Current_Thrushold                           
0000336a  NumberOfLongPowerFails                      
0000336c  Billing_Data                                
000033a0  PLC_Vendor_ID                               
000033a2  PLC_Product_ID                              
000033a3  MaxAllowedTimeShift                         
000033a4  ClockTimeShiftInvalidLim                    
000033a6  TransformerRatio_VoltageNum                 
000033a8  TransformerRatio_VoltageDen                 
000033aa  TransformerRatio_CurrentNum                 
000033ac  TransformerRatio_CurrentDen                 
000033ae  TimeThresholdPowerDemandExceed              
000033b0  Active_Demand_Control_Threshold             
000033b4  DurationOfAllLongPowerFailes                
000033b6  ThrusholdPowerDemandCloseToContractPower    
000033b8  CurrentActiveTariff                         
000033ba  Output_State                                
000033bc  control_state                               
000033bd  control_mode                                
000033be  ErrorValue                                  
000033c2  ImportActivePowerOverThrStatus              
000033c4  ExportActivePowerOverThrStatus              
000033c6  ImportActivePowerThreshold                  
000033ca  ExportActivePowerThreshold                  
000033ce  SA_From_Entry                               
000033d2  SA_To_Entry                                 
000033d6  SA_From_Column                              
000033d8  SA_To_Column                                
000033da  SA_Range_Num_Columns                        
000033e2  setblock_residue_len                        
000033e3  Authorised                                  
000033e4  current_get_block_type                      
000033e6  current_get_block_len                       
000033e8  current_get_block_no                        
000033ea  current_get_block_datatype                  
000033ec  current_get_block_addr                      
000033f0  current_get_block_callback                  
000033f4  current_get_block_chunk_len                 
000033f6  current_get_block_chunk_last                
000033f8  set_obj                                     
000033fa  set_element                                 
00003428  power_brakes                                
00003450  currentDayProfile                           
00003494  SystemStatus                                
00003496  meter_connected_phase                       
00003497  ActiveQuadrant                              
00003498  Phase_Presence                              
00003499  energy_export_support                       
0000349a  critial_System_error                        
0000349c  local_comm_exchange_mode_flag               
0000349e  __backingUp                                 
000034a0  over_current_temp                           
000034a4  under_voltage_temp                          
000034a8  over_voltage_temp                           
000034ac  over_frequency_temp                         
000034ae  under_frequency_temp                        
000034b0  over_power_temp                             
000034b4  currentEnergyLogEntry                       
000034ce  Device_ID_6                                 
000034e8  FirmwareVersion                             
000034ec  MAX_LOG_RETRAY                              
000034ee  LastEnergyLogAddress                        
000034f2  LastEventLogAddress                         
000034f6  LastEnergyBillingCuttOffLogAddress          
000034fa  EEPROM_InitError                            
000034fb  firtstBoot                                  
000034fc  reading_error_counter                       
00003500  Device_ID_4                                 
00003516  Manufacturer_Name                           
0000352c  authentications                             
00003540  known_far_msap_list                         
00003554  Device_ID_3                                 
00003568  Tx_Buffer_Index                             
0000356a  CurrentTX_Index                             
0000356c  Rx_Bufffer_Index                            
0000356e  CurrentTxLength                             
00003570  CurrentRxLength                             
00003572  Tx_Done                                     
00003574  Rx_Done                                     
00003576  RXCount                                     
00003578  readBlobStatus                              
00003579  blobDataLength                              
0000357a  readBlobAddress                             
0000357c  tamper_InitError                            
0000357e  UCTamperSchaduled                           
0000357f  LCTamperSchaduled                           
00003580  MagneticTamperSchaduled                     
00003582  UCTamperCounter                             
00003584  LCTamperCounter                             
00003586  MagneticTamperCounter                       
00003588  NeutralTamperCounter                        
0000358a  tamper_Visibility                           
0000358c  init_tamper_time                            
0000358e  auth2                                       
000035a0  Calendar_Name_Passive                       
000035b2  MaxDisplayState                             
000035b3  MaxDisplayStateMode1                        
000035b4  current_display_Error                       
000035b6  scroll_display_time                         
000035ba  AutoDisplayTime                             
000035be  BackToAutoModeTime                          
000035c0  Language                                    
000035c1  SelectedCalender                            
000035c2  tariffslot                                  
000035c4  Calendar_Name_Active                        
000035d4  billingSchema                               
000035d5  TariffError                                 
000035d6  TotalKWHRSinceLastBillingPeriod             
000035da  ConsumptionSinceLastBilling                 
000035de  lowtariff_temp                              
000035e2  Current_billing_Duration_in_days            
000035e3  Current_billing_Duration_Counter            
000035e4  challenge_s2c                               
000035f4  currentEventLogEntry                        
00003604  Billing_Script_Execution_Time_Template      
00003614  DiconnectControl_Script_Execution_Time      
00003624  IEC_Tx_Buffer_Index                         
00003626  IEC_Rx_Buffer_Index                         
00003628  IEC_CurrentTxLength                         
0000362a  IEC_CurrentRxLength                         
0000362c  IEC_Tx_Done                                 
0000362d  IEC_Rx_Done                                 
0000362e  Transmit                                    
00003630  IEC_RXCount                                 
00003632  Error_Char_Recived                          
00003634  plc_state                                   
00003635  statusRecived                               
00003636  plc_status                                  
00003637  plc_counter                                 
00003638  current_tx_timeout                          
00003639  currentMessageType                          
0000363a  RetryCount                                  
0000363b  plc_comm_status                             
0000363c  read_blob_flag                              
0000363d  PLC_INIT_STATE                              
0000363e  messageSent                                 
0000363f  count                                       
00003640  Mode                                        
00003642  PLCOtherRequestsRetryCount                  
00003644  DeviceIdentifier                            
00003652  Device_ID_5                                 
00003660  Special_Days_List_Template                  
0000366e  firm_image                                  
0000367c  firm_sec                                    
0000368a  Activate_Passive_Calendar_Time              
00003698  DateTimeFormat                              
000036a6  Last_MD_Rst_DT                              
000036b4  csum                                        
000036b6  w                                           
000036b8  ISR_Debouncer                               
000036ba  LC_ISR_Counter                              
000036bc  UC_ISR_Counter                              
000036be  test_temp22                                 
000036bf  temp_pfm                                    
000036c0  prc                                         
000036c2  keyPressCount                               
000036c4  keyPressDebounce                            
000036c6  keyReleasedDebounce                         
000036c7  KeyPadState                                 
000036c8  buzzer_status                               
000036ca  buzeer_time_counter                         
000036cc  numberOfBeepCounter                         
000036ce  re                                          
000036d0  device_identifier                           
000036de  time_string                                 
000036ec  Disconnect                                  
000036ee  AutoConnect                                 
000036ef  RelayTariffAutoConDisconEnabled             
000036f0  connect_timeout                             
000036f1  connect_counter                             
000036f2  start_connect_timeout                       
000036f3  reset_timeout                               
000036f4  reset_counter                               
000036f5  reset_relay_required                        
000036f6  relayState                                  
000036f7  disconnect_verified                         
000036f8  Meter_Sr_No                                 
00003704  Chunk_Size                                  
00003706  delay_count                                 
00003708  timer_epoch                                 
0000370c  last_timeout                                
0000370e  default_time                                
0000371c  Power_good                                  
00003720  F_Count                                     
00003722  byte_counter                                
00003724  fi                                          
00003728  fs                                          
0000372c  mac_pid_failer_count                        
0000372d  keepAliveTaskNumber                         
0000372e  keepAliveTimeOutTime_ms                     
00003730  plc_connection_status                       
00003731  pib_status                                  
00003732  plc_request_status                          
00003733  jump_cancel_getMACPIB                       
00003734  temp_counter                                
00003736  currentHoliday                              
0000373e  next_inactivity_timeout                     
00003746  next_octet_timeout                          
0000374e  Device_ID_2                                 
00003756  MACAddress                                  
0000375e  PLC_FW_Version                              
00003766  image_signature                             
0000376e  Device_ID_7                                 
00003774  EUI                                         
0000377a  FirmwareVersionStr                          
00003780  secondCounter                               
00003781  EnergyLoggingTime                           
00003782  low_bat_backup_time                         
00003783  minuteCounts                                
00003784  calender_change_counter                     
00003785  elogMinCounter                              
00003786  Dest_MSAP_Len                               
00003788  Source_MSAP_Len                             
0000378a  seggy_len                                   
0000378c  mid_entry                                   
00003790  res                                         
00003791  TotalTasks                                  
00003792  SchadulerIsOn                               
00003793  Schaduler_counter                           
00003794  temp_SC_Counter                             
00003795  CurrentSystemErrorsCount                    
00003796  displayIndex                                
00003797  displayCount                                
00003798  rtc_init                                    
00003799  lpc                                         
0000379a  rtc_init_counter                            
0000379c  attachTimeOutCounter                        
0000379e  CurrentBatteryLevel                         
000037a0  Device_ID_8                                 
000037a2  LLC_DEF_DEST_LSAP                           
000037a4  LLC_DEF_Node_Address                        
000037a6  LLC_SOURCE_LSAP                             
000037a8  Data_Buffer                                 
00003bb0  _stack                                      
00003c00  __STACK_END                                 
00004000  adc_interrupt                               
000048a4  one_second_ticker                           
000049d8  USCI_A1_ISR                                 
00004aa8  Port_1                                      
00004b5e  TIMER2_A1_ISR                               
00004bd6  TIMER0_A0_isr                               
00004c4a  AUX_ISR                                     
00004ca4  USCI_A0_ISR                                 
00004ce8  _c_int00_noargs_noexit                      
00004d02  __TI_ISR_TRAP                               
00004d0a  ISR_trap                                    
00004d0c  custom_power_restore_handler                
00004d5c  getNextError                                
00004dac  hdlc_async_tx_add_body                      
00004dfc  process_disc_frame                          
00004e4c  setMinValues                                
00004e9c  AddError                                    
00004eea  clear_all_english_indicatros                
00004f38  init_dlms                                   
00004f86  show_all_english_indicatros                 
00004fd4  InitI2C                                     
00005020  flashBackup                                 
0000506c  getMacAddress                               
000050b8  queue_isFull                                
00005104  __mspabi_fixful                             
00005150  testKey                                     
0000519c  updateBlocksStatus                          
000051e8  CalculateBilling                            
00005232  changeDeviceId5                             
0000527c  changeDeviceId6                             
000052c6  changeDeviceId7                             
00005310  configure_uart_port                         
0000535a  getSetDeviceIdentifier                      
000053a4  getSetMacAddress                            
000053ee  __mspabi_cmpf                               
00005438  setLogicDeviceName                          
00005482  updatateFirwmareBlockStatus                 
000054cc  EEPROM2_WriteNextLong                       
00005514  I2C2WriteInt8                               
0000555c  changeDeviceId2                             
000055a4  changeDeviceId4                             
000055ec  changeDeviceId8                             
00005634  changeMeterSerialNumber                     
0000567c  reset_alarms                                
0000570a  setLastLogAddress                           
00005750  ScaduleTask                                 
00005794  changeTimeThresholdLongPowerFaile           
000057d8  executeTasks                                
0000581c  get_weekday                                 
00005860  init_rtc                                    
000058a4  is_time_valid                               
000058e8  voltage                                     
0000592c  writeImageIdentifier                        
00005970  I2C2GenerateStartCondition                  
000059b2  I2C2ReadInt8                                
000059f4  ProcessDiagnosisResult                      
00005a36  initTamper                                  
00005a78  mod                                         
00005aba  show_all_non_uint_indicators                
00005afc  Get_Mac_PIB_TimedOut                        
00005b3c  InitPLC                                     
00005b7c  SetVCore                                    
00005bbc  __mspabi_srall                              
00005bfc  change_uart_a1_to_7e1_x_bd                  
00005c3c  hdlc_async_tx_build                         
00005c7c  iec62056_46_link_init                       
00005cbc  isMFormatRequired                           
00005cfc  process_dlms_frame                          
00005d3c  queue_dequeue                               
00005d7c  queue_enqueue                               
00005dbc  __mspabi_divli                              
00005dbc  __mspabi_remli                              
00005dfc  setCurrentBalance                           
00005e3c  setRelayStatus                              
00005e7c  EEPROM_reformatImageTransferStatusBytes     
00005eba  Obj_Event_Log_reset                         
00005ef8  Obj_Load_Profile_reset                      
00005f36  clear_all_amharic_indicators                
00005f74  isqrt32                                     
00005fb2  frequency                                   
00005ff0  __mspabi_sral_15                            
00005ff4  __mspabi_sral_14                            
00005ff8  __mspabi_sral_13                            
00005ffc  __mspabi_sral_12                            
00006000  __mspabi_sral_11                            
00006004  __mspabi_sral_10                            
00006008  __mspabi_sral_9                             
0000600c  __mspabi_sral_8                             
00006010  __mspabi_sral_7                             
00006014  __mspabi_sral_6                             
00006018  __mspabi_sral_5                             
0000601c  __mspabi_sral_4                             
00006020  __mspabi_sral_3                             
00006024  __mspabi_sral_2                             
00006028  __mspabi_sral_1                             
0000602e  __mspabi_slll_15                            
00006032  __mspabi_slll_14                            
00006036  __mspabi_slll_13                            
0000603a  __mspabi_slll_12                            
0000603e  __mspabi_slll_11                            
00006042  __mspabi_slll_10                            
00006046  __mspabi_slll_9                             
0000604a  __mspabi_slll_8                             
0000604e  __mspabi_slll_7                             
00006052  __mspabi_slll_6                             
00006056  __mspabi_slll_5                             
0000605a  __mspabi_slll_4                             
0000605e  __mspabi_slll_3                             
00006062  __mspabi_slll_2                             
00006066  __mspabi_slll_1                             
0000606c  __mspabi_srll_15                            
00006070  __mspabi_srll_14                            
00006074  __mspabi_srll_13                            
00006078  __mspabi_srll_12                            
0000607c  __mspabi_srll_11                            
00006080  __mspabi_srll_10                            
00006084  __mspabi_srll_9                             
00006088  __mspabi_srll_8                             
0000608c  __mspabi_srll_7                             
00006090  __mspabi_srll_6                             
00006094  __mspabi_srll_5                             
00006098  __mspabi_srll_4                             
0000609c  __mspabi_srll_3                             
000060a0  __mspabi_srll_2                             
000060a4  __mspabi_srll_1                             
000060aa  show_all_amharic_indicators                 
000060e8  writeDailyProfilePassive_dlms               
00006126  dl_connect_indication                       
00006162  extract_cosem_asn1                          
0000619e  getBackToAutoModeTime                       
000061da  getLastLogAddress                           
00006216  I2C2GenerateStopCondition                   
00006250  __mspabi_sllll                              
0000628a  __mspabi_srlll                              
000062c4  change_uart_a1_to_8n1_x_bd                  
000062fe  hdlc_async_tx_add_header                    
00006338  iec62056_46_check_and_set_far_msap          
00006372  setPowerBreaks                              
000063aa  setRate                                     
000063e2  changeDeviceId3                             
00006418  changeTimeThresholdVoltageSag               
0000644e  changeTimeThresholdVoltageSwell             
00006484  loadDailyProfile                            
000064ba  loadDailyProfilePassive                     
000064f0  pack32                                      
00006526  unpack32                                    
0000655c  Init_FLL_Settle                             
00006590  SecondBeeps                                 
000065c4  changeDisplayScrollTime                     
000065f8  check_rtc_sumcheck                          
0000662c  disable_analog_front_end                    
00006660  dc_filter16                                 
0000668a  dc_filter16_init                            
00006694  set_phase_correction                        
000066c8  CancelTask2                                 
000066fa  __mspabi_fltulf                             
0000672c  ClearTamper_c                               
0000675c  ShowTamper_c                                
0000678c  compare_energy                              
000067bc  compare_event                               
000067ec  getEnergyOverlapFlag                        
0000681c  setBlob                                     
0000684c  set_sd16_phase_correction                   
0000687c  Access_Billing_Script_Execution_Time        
000068aa  get_Special_Days_List                       
000068d8  per_minute_activity                         
00006906  quotient                                    
00006934  Access_Day_Profile_Table                    
00006960  Access_Day_Profile_Table_Passive            
0000698c  IEC_Start_SendBuffer                        
000069b8  changeNumberOfLongPowerFailes               
000069e4  getEnergyLogTime                            
00006a10  getPowerBreaks                              
00006a3c  getRate                                     
00006a68  __mspabi_divi                               
00006a68  __mspabi_remi                               
00006a94  write_to_eeprom                             
00006ac0  AttachTimedOut                              
00006aea  CRC16_UpdateChecksum                        
00006b14  PollACK2                                    
00006b3e  checkConfigrationPortsStatus                
00006b68  getRateStartIndex                           
00006b92  hdlc_async_rx_init                          
00006bbc  setAutoDisplayTime                          
00006be6  setBackToAutoModeTime                       
00006c10  setConsumptionSinceLastBilling              
00006c3a  setFirmwareVersion                          
00006c64  setTempLastEnergyValue                      
00006c8e  LFXT_Start                                  
00006cb6  RemoveError                                 
00006cde  ToggleBuzzer2                               
00006d04  init_lcd_c                                  
00006d2a  memcmp                                      
00006d50  setEnergyOverlapFlag                        
00006d76  PLC_Start_SendBuffer                        
00006d9a  changeLoadProfileCapturePeriod              
00006dbe  getBlob                                     
00006de2  getCheckSum                                 
00006e06  getTamperCount                              
00006e2a  __mspabi_fltuf                              
00006e4e  __mspabi_mpyl_f5hw                          
00006e72  setTamperCount                              
00006e96  KeepAlive                                   
00006eb8  clear_all_units                             
00006eda  current_time                                
00006efc  show_all_units                              
00006f1e  writeImageSize                              
00006f40  writePreviousImageNumber                    
00006f62  Capture_Instantaneous_EnergyProfile_Data    
00006f82  Capture_Instantaneous_Profile_Data          
00006fa2  flash_clr                                   
00006fc2  readFirwmareBlockStatus                     
00006fe2  set_rtc_sumcheck                            
00007002  Disconnect_script_execute                   
00007020  GetSystemInfoRequest                        
0000703e  aes_decrypt                                 
0000705c  aes_encrypt                                 
0000707a  clear_all_non_uint_indicators               
00007098  finalise_and_send_frame                     
00007098  finalise_and_send_iframe                    
000070b6  getAutoDisplayTime                          
000070d4  getBillingSchema                            
000070f2  getLanguageSelection                        
00007110  getMeterConnectedPhase                      
0000712e  getOperatingMode                            
0000714c  hdlc_async_tx_build_iframe_chunk_add        
0000716a  queue_isEmpty                               
00007188  setBillingCutOffLogOverlapFlag              
000071a6  setBillingSchema                            
000071c4  setEnergyLogTime                            
000071e2  setEventOverlapFlag                         
00007200  setLanguageSelection                        
0000721e  setMeterConnectedPhase                      
0000723c  setOperatingMode                            
0000725a  ProcessTamperUC                             
00007276  __mspabi_mpysl_f5hw                         
00007292  getSetOperatingMode                         
000072ae  hdlc_async_tx_init                          
000072ca  iec62056_46_link_idle_timeout               
000072e6  process_dm_frame                            
00007302  toEthioCalender                             
0000731e  I2C2RequestTx                               
00007338  crc_itu16                                   
00007352  sqac48_16                                   
0000736c  init_ErrorList                              
00007386  pack16                                      
000073a0  wait_StatusAsync                            
000073ba  calibrateIMeter                             
000073d2  calibratePMeter                             
000073ea  calibrateVMeter                             
00007402  flash_secure                                
0000741a  galois_mul2                                 
00007432  __mspabi_mpyi_f5hw                          
0000744a  send_get_response_block                     
00007462  swtch_to_auto_mode_c                        
0000747a  BeepBuzzer                                  
00007490  CRC16_BlockChecksum                         
000074a6  InitGLCD_c                                  
000074bc  Init_Scheduler                              
000074d2  ResetPLC_StateFlow                          
000074e8  Slave_Address                               
00007514  llabs                                       
0000752a  memset                                      
00007556  queue_reinit                                
0000756c  __mspabi_divu                               
0000756c  __mspabi_remu                               
00007582  AddtoTXBuffer                               
00007596  IEC_AddtoTXBuffer                           
000075aa  __delay                                     
000075be  eeprom_write                                
000075e6  memcpy                                      
000075fa  Access_Disconnect_Scripts                   
0000760c  Access_GlobalReset_Scripts                  
0000761e  Access_Season_Profile                       
00007630  Access_Tariff_Scripts                       
00007642  Access_Week_Profile_Table                   
00007654  BussIdeal2                                  
00007666  EEPROM2Init                                 
00007666  I2C2Init                                    
00007678  ProcessTamperLC                             
0000768a  ResetRelayPort                              
0000769c  ToggleBuzzer                                
000076ae  UpadateErrorIndicators                      
000076c0  change_hls_secret_HS                        
000076d2  change_hls_secret_LS                        
000076e4  change_hls_secret_NS                        
000076f6  __TI_decompress_none                        
00007708  initTampperSwitchs                          
0000771a  startSchaduler                              
0000772c  KeyRealeased_org                            
0000773c  Reset_System                                
0000774c  aes_enc_dec                                 
0000775c  getimage_transferred_blocks_status          
0000776c  __mspabi_sral                               
0000777c  __mspabi_slll                               
0000778c  __mspabi_srll                               
0000779c  labs                                        
000077aa  otherPLCRequestsTimeOut                     
000077b8  BuzzerOn                                    
000077c4  hdlc_async_tx_add_hdr_crc                   
000077d0  stopSchaduler                               
000077dc  unpack16                                    
000077e8  BuzzerOff                                   
000077f2  DisableEEPROM2PORT                          
000077fc  IEC_resetTXBuffer                           
00007806  KeyRealeased                                
00007810  abs                                         
0000781a  iec62056_46_rx_timeout                      
00007824  iec62056_46_set_far_msap                    
0000782e  per_day_activity                            
00007838  remote_disconnect                           
00007842  remote_reconnect                            
0000784c  __mspabi_slli                               
00007856  __mspabi_srli                               
00007860  EnergyLedOff                                
00007868  EnergyLedOn                                 
00007870  RedLedOff                                   
00007878  RedLedOn                                    
00007880  C$$EXIT                                     
00007880  abort                                       
00007886  all_segments_off                            
0000788c  __TI_decompress_rle24                       
00007892  disableIEC_UART                             
00007898  disablePLC_UART                             
0000789e  image_activate                              
000078a4  image_verify                                
000078aa  switch_to_manual_mode_c                     
000078b0  weekday                                     
000078b6  _system_pre_init                            
000078ba  dl_disconnect_indication                    
000078be  Detach_Confirm                              
000078c0  GET_PHY_PIB_rep                             
000078c2  GetSystemInfoResponse                       
000078c4  GlobalReset_script_execute                  
000078c6  Obj_Event_Log_capture                       
000078c8  Obj_Load_Profile_capture                    
000078ca  _system_post_cinit                          
000078cc  activate_passive_calendar                   
000078ce  add_object                                  
000078d0  billing_script_execute                      
000078d2  dataTransferTimedout                        
000078d4  delete_special_day                          
000078d6  dl_connect_confirm                          
000078d8  getSetFwVersion                             
000078da  iec62056_46_link_idle_restart               
000078dc  insert_special_day                          
000078de  process_frmr_frame                          
000078e0  process_ui_frame                            
000078e2  remove_object                               
000078e4  tariff_script_execute                       
000078e6  object_list                                 
00008052  crc_itu16_table                             
00008452  fir_coeffs                                  
00008652  rsbox                                       
00008752  sbox                                        
00008852  Instantaneous_Values_Capture_Objects        
00008940  Billing_Profile_Capture_Objects             
000089e6  Instantaneous_Energy_Capture_Objects2       
00008a7a  Load_Profile_Capture_Objects                
000090e8  reject_ln_context                           
000090ea  reject_sn_context                           
000090f4  Comm_Speed                                  
000090f5  Window_Size_Transmit                        
000090f6  Window_Size_Receive                         
000090f8  Max_Info_Field_Len_TX                       
000090fa  Max_Info_Field_Len_RX                       
000090fc  Inter_Octet_Timeout                         
000090fe  Inactivity_Time_Out                         
00009100  Device_Address                              
00009102  Internal_CT_Ratio                           
00009104  Internal_PT_Ratio                           
00009106  Year_of_Manufacture                         
00009108  Billing_Script_Type                         
00009109  DiconnectControl_Type                       
0000910a  Instant_Profile_Entries_In_Use              
0000910e  Instant_Profile_Entries                     
00009112  Instant_Profile_Capture_Period              
00009116  Instant_Profile_Sort_Method                 
00009118  Instant_Scaler_Profile_Entries_In_Use       
0000911c  Instant_Scaler_Profile_Entries              
00009120  Instant_Scaler_Profile_Capture_Period       
00009124  Instant_Scaler_Profile_Sort_Method          
00009126  Load_Scaler_Profile_Entries_In_Use          
0000912a  Load_Scaler_Profile_Entries                 
0000912e  Load_Scaler_Profile_Capture_Period          
00009132  Load_Scaler_Profile_Sort_Method             
00009134  Billing_Profile_Entries_In_Use              
00009138  Billing_Profile_Entries                     
0000913c  Billing_Profile_Capture_Period              
00009140  Billing_Profile_Sort_Method                 
00009198  Day_Profile_Table_Passive_Template          
000091ea  Day_Profile_Table_Template                  
0000923c  Instantanious_Profile_Buffer_Template2      
00009316  Billing_Profile_Buffer_Template             
00009438  Disconnect_Scripts_Table                    
0000946e  Tariff_Scripts_Dummy                        
000094a4  Instantanious_EnergyProfile_Buffer_Template2
000094d8  Load_Profile_Buffer_Template                
00009b1a  Standard_Event_Log_Objects                  
00009b42  Season_Profile_Dummy                        
00009c08  Billing_Script                              
00009c24  GlobalReset_Scripts_Table                   
00009c40  Week_Profile_Table_Dummy                    
0000a0a0  image_to_activate_info                      
0000a0ba  Instantanious_Profile_Column_Szs2           
0000a12e  Day_Profile_Table_Column_Szs                
0000a158  Billing_Profile_Sort_Object                 
0000a16a  Instantaneous_Energy_Sort_Object            
0000a17c  Instantaneous_Values_Sort_Object            
0000a18e  Load_Profile_Sort_Object                    
0000a1a0  Standard_Event_Log_Template                 
0000a1b2  Billing_Profile_Column_Szs                  
0000a1d4  Instantanious_EnergyProfile_Column_Szs2     
0000a1e4  Load_Profile_Column_Szs                     
0000a250  Executed_Billing_Script                     
0000a25e  Executed_DiconnectControl_Script            
0000a26c  month_lengths                               
0000a2b6  acceptable_conformance                      
0000a2c2  LCD_CHAR                                    
0000a2ce  Rcon                                        
0000a30a  auth_mech_name_HS                           
0000a312  auth_mech_name_LS                           
0000a31a  auth_mech_name_NS                           
0000a37a  partner_HS                                  
0000a382  partner_LS                                  
0000a38a  partner_NS                                  
0000a398  scalar_unit_Frequency                       
0000a39e  scalar_unit_I                               
0000a3a4  scalar_unit_KVA                             
0000a3aa  scalar_unit_KW                              
0000a3b0  scalar_unit_PF                              
0000a3b6  scalar_unit_ThresholdVoltageSag_Swell       
0000a3bc  scalar_unit_Time                            
0000a3c2  scalar_unit_Time_Shift_EvtLim               
0000a3c8  scalar_unit_V                               
0000a3ce  scalar_unit_active_power                    
0000a3d4  scalar_unit_dem_colseToContractPower        
0000a3da  scalar_unit_power_current_voltage_calib     
0000a3e0  scalar_unit_reactive_energy                 
0000a3e6  scalar_unit_referance_voltage               
0000a3ec  scalar_unit_total_active_energy_import      
0000a3f2  Special_Days_Column_Size                    
0000a414  Standard_Event_Log_Column_Szs               
0000a418  keydebounce                                 
0000a8f4  __TI_Handler_Table_Base                     
0000a8fc  __TI_CINIT_Base                             
0000a8fc  __TI_Handler_Table_Limit                    
0000a90c  __TI_CINIT_Limit                            
0000ffd0  __TI_int40                                  
0000ffd2  __TI_int41                                  
0000ffd4  __TI_int42                                  
0000ffd6  __TI_int43                                  
0000ffd8  __TI_int44                                  
0000ffda  __TI_int45                                  
0000ffdc  __TI_int46                                  
0000ffde  __TI_int47                                  
0000ffe0  __TI_int48                                  
0000ffe2  __TI_int49                                  
0000ffe4  __TI_int50                                  
0000ffe6  __TI_int51                                  
0000ffe8  __TI_int52                                  
0000ffea  __TI_int53                                  
0000ffec  __TI_int54                                  
0000ffee  __TI_int55                                  
0000fff0  __TI_int56                                  
0000fff2  __TI_int57                                  
0000fff4  __TI_int58                                  
0000fff6  __TI_int59                                  
0000fff8  __TI_int60                                  
0000fffa  __TI_int61                                  
0000fffc  __TI_int62                                  
0000fffe  _reset_vector                               
00010000  UpdateDisplay_c                             
000113de  WriteFloat_c                                
000121ec  ProcessRecivedPLCMessage                    
00012ac6  send_get_response                           
00013358  InitLogg                                    
00013ba6  main                                        
0001427e  get_numeric_item                            
00014954  per_second_activity                         
00015014  LoadConfigurations                          
000156c0  aes_decr                                    
00015d4a  iec62056_46_rx_byte                         
0001637c  send_set_response_datablock                 
00016924  aes_encr                                    
00016ea8  send_get_response_block_a                   
000173e0  clear_numbers                               
0001781a  show_numbers                                
00017c54  interpret_and_fill                          
00018018  send_get_response_block_b                   
0001838e  __mspabi_divull                             
00018700  clear_date                                  
00018a6a  show_date                                   
00018dd4  expandKey                                   
00019120  InitPLC2                                    
00019458  process_aarq                                
00019784  restoreBackup                               
00019d98  find_num_energy_log__entries_between        
0001a074  __mspabi_addd                               
0001a34c  send_set_response                           
0001a60a  process_rx_frame                            
0001aae0  __TI_frcaddd                                
0001ad32  clear_hourminute                            
0001af7a  show_hourminute                             
0001b1c2  send_aare                                   
0001b3d6  find_num_event_log__entries_between         
0001b5de  compare_and_retrieve                        
0001b7e4  get_string_item                             
0001b9e0  receive_firmware_image                      
0001bbd4  floor                                       
0001bbd4  floorl                                      
0001bf66  Load_System_Config_Request                  
0001c12c  active_power                                
0001c2e0  PLC_Byte_Recived                            
0001c618  EthiopianCalender                           
0001c7a8  UpdateTamperIndicators                      
0001c938  perform_low_battry_backup                   
0001cac8  ALARM_Indication                            
0001cc50  current                                     
0001cdd8  logPowerFailEnergy                          
0001cf60  JulianDayNumber                             
0001d0e4  getTripDuration                             
0001d264  send_action_response                        
0001d53e  performPowerQualityMessurement              
0001d686  __mspabi_divlli                             
0001d7c6  per_month_activity                          
0001d8fe  longToString_c                              
0001da32  logBillingCutoffDateLog                     
0001db64  __mspabi_subf                               
0001db6a  __mspabi_addf                               
0001dc96  init_loader                                 
0001ddc2  CalculateTariff_New                         
0001dee2  process_i_body                              
0001e11e  reactive_power                              
0001e348  getTariffSchaduleTimeslot                   
0001e458  getTariffSchaduleTimeslotPassive            
0001e568  get_date_time_string                        
0001e676  div_sh48                                    
0001e780  __mspabi_fltulld                            
0001e886  process_snrm_frame                          
0001e98c  setTripDuration                             
0001ea8e  change_boud_rate                            
0001eb8e  updateNextLogAddress                        
0001ec8c  adjust_rtc                                  
0001ed88  loadEnergyToRam                             
0001ee7e  read_from_eeprom                            
0001ef74  test_current_balance                        
0001f06a  process_ua_frame                            
0001f248  SendMessage                                 
0001f32c  DiagnosisMeter                              
0001f40e  custom_power_fail_handler                   
0001f4ee  getPublicHoliday                            
0001f5cc  getDeviceIDs                                
0001f6a8  __mspabi_cmpd                               
0001f780  Init_FLL                                    
0001f856  SetVCoreUp                                  
0001f926  UpdateDisplayProgressBar_c                  
0001f9f6  updateCalibrationFactor                     
0001fac6  UpdateRelayStatus                           
0001fb94  DataTransferRequest                         
0001fd24  ConnectMeter                                
0001fde8  DisconnectMeter                             
0001feac  Capture_Load_Profile_Data                   
0001ff6c  EEPROM2_WriteInt8                           
0002002c  getNominalValues                            
000200ec  loadEventToRam                              
000201ac  search_nearest_log                          
0002026c  setDeviceIDs                                
0002032c  set_string_item                             
000203ec  getTimeDifferenceInMinutes                  
000204aa  hdlc_async_tx_build_iframe                  
00020568  LoadTodaysTariff                            
00020624  hdlc_async_tx_end                           
000206e0  set_numeric_item                            
0002079c  IsDisconnectRequired                        
00020856  isMemFormatted                              
00020910  system_setup                                
000209ca  neutral_current                             
00020a82  __mspabi_mpyf                               
00020b3a  setGetActivePassiveCalendarTime             
00020bee  __TI_renormd                                
00020ca0  getTime                                     
00020d52  Capture_Standard_Event_Log                  
00020e02  ProcessWriteBlob                            
00020eb2  custom_initialisation                       
00020f62  EEPROM2_ReadInt8                            
0002100e  reply_to_hls_auth                           
000210b8  Attach_Request                              
00021160  bump_rtc_backup                             
00021208  isqrt64                                     
000212b0  ChangeReferanceVoltage                      
00021356  getMaxValues                                
000213fc  logEnergy                                   
000214a2  SetVCoreDown                                
00021544  image_block_transfer                        
000215e2  image_transfer_initiate                     
0002167c  InitRelay                                   
00021714  getTimeStamp                                
000217ac  LCTamperDetected                            
00021840  loadDailyProfilePassive_dlms                
000218d4  loadDailyProfile_dlms                       
00021968  processKey                                  
000219fc  UCTamperDetected                            
00021a8e  compare_time                                
00021b20  getEnergy                                   
00021bb2  DataTransferIndication                      
00021c42  getMeterStatus                              
00021cd2  power_factor                                
00021d62  __mspabi_divf                               
00021df2  GET_MAC_PIB_rep                             
00021e80  getimage_first_not_transferred_block_number 
00021f0e  setNominalValues                            
00021f9c  flash_replace16                             
00022028  EEPROM2_ReadLong                            
000220b2  all_segments_on                             
0002213c  logEvent                                    
000221c4  setTariffSchaduleTimeslot                   
0002224c  setTariffSchaduleTimeslotPassive            
000222d4  GetCurrentMinuteTariffTimeSlot              
0002235a  EEPROM2_ReadNextLong                        
000223de  EEPROM2_WriteNextInt8                       
00022462  ProcessReadBlob                             
000224e6  getRTCCheck                                 
0002256a  initTariff                                  
000225ee  write_mem                                   
00022672  _auto_init_hold_wdt                         
000226f4  getEvent                                    
00022776  read_eeprom                                 
000227f2  EEPROM_DRIVER_ADDR_END                      
000227f4  writeFirmwareBlock                          
00022872  setMaxValues                                
000228ec  switch_to_normal_mode                       
00022966  apparent_power                              
000229de  autentication_secreate_LS                   
00022a54  EEPROM2_ReadNextInt8                        
00022ac8  getMinValues                                
00022bb0  CheckTariff                                 
00022c22  getEnergy2                                  
00022c94  send_ua                                     
00022d06  changeExportActivePowerThreshold            
00022d76  changeImportActivePowerThreshold            
00022de6  find_num_total_Standard_Event_Log_entries   
00022e56  InitPLCUART                                 
00022ec4  display_next_item_c                         
00022f32  find_num_total_energy_log_entries           
00022fa0  send_dm                                     
0002300e  send_frmr                                   
0002307c  CheckBattery                                
000230e8  send_confirmed_service_error                
00023154  setPassword                                 
000231c0  InitIECUART                                 
000231c0  initIEC62056                                
0002322a  getEvent2                                   
00023294  logMeterStatus                              
000232fe  send_frame                                  
00023368  Attach_Confirm                              
000233d0  GET_MAC_PIB_Request                         
000234a0  __mspabi_fixdul                             
00023508  getPassword                                 
00023570  copy_in                                     
000235d6  setRTCCheck                                 
0002363c  EEPROM2_WriteLong                           
00023700  setMacAddress                               
00023760  Obj_DecrementBalance                        
000237be  Obj_IncrementBalance                        
0002381c  SETUP_ALARM_Request                         
0002387a  changeThresholdLongPowerFaile               
000238d8  getHardwareTime                             
00023936  CheckConnectionIsEnabled                    
00023992  __mspabi_mpyll_f5hw                         
00023a48  FLASH_PROGRAMMER_ADDR_END                   
00023a4a  CheckMagneticTamper                         
00023aa2  getCurrentBalance                           
00023afa  getLogicDeviceName                          
00023b52  getRelayStatus                              
00023baa  __mspabi_divul                              
00023baa  __mspabi_remul                              
00023c02  InitUI                                      
00023c58  dc_filter24                                 
00023c94  dc_filter24_init                            
00023cae  loadCurrentHoliday                          
00023d02  reFormatMemoryFormatIndicator               
00023d56  I2C2ACK                                     
00023da8  I2C2NACK                                    
00023dfa  Shutdown_Request                            
00023e4c  changeThresholdVoltageSag                   
00023e9e  readAllFirwmareBlockStatus                  
00023ef0  I2C2getACK                                  
00023f40  changeCumulativeTamperCount                 
00023f90  changeThresholdVoltageSwell                 
00023fe0  Capture_Billing_Profile_Data                
ffffffff  __TI_pprof_out_hndl                         
ffffffff  __TI_prof_data_size                         
ffffffff  __TI_prof_data_start                        
ffffffff  __c_args__                                  
UNDEFED   __TI_BINIT_Base                             
UNDEFED   __TI_BINIT_Limit                            
UNDEFED   __TI_INITARRAY_Base                         
UNDEFED   __TI_INITARRAY_Limit                        

[1979 symbols]
